
target/atmega88pa/release/led_wave_potentiometer.elf:     file format elf32-avr

Contents of section .data:
 800100 86000000 01008000 28010400 30011900  ........(...0...
 800110 0b000000 05000000 94011100 52014200  ............R.B.
 800120 ec020000 05000000 4f4f4d21 74657374  ........OOM!test
 800130 7372632f 66726565 72746f73 5f616c6c  src/freertos_all
 800140 6f636174 6f722e72 73727573 745f7461  ocator.rsrust_ta
 800150 736b2f68 6f6d652f 61727468 75722f4d  sk/home/arthur/M
 800160 7950726f 6a656374 732f5275 73742f61  yProjects/Rust/a
 800170 76722d72 7573742f 72757374 2f737263  vr-rust/rust/src
 800180 2f6c6962 616c6c6f 632f7261 775f7665  /liballoc/raw_ve
 800190 632e7273 63617061 63697479 206f7665  c.rscapacity ove
 8001a0 72666c6f 7749444c 4500               rflowIDLE.      
Contents of section .text:
 0000 5cc176c1 75c174c1 73c172c1 71c170c1  \.v.u.t.s.r.q.p.
 0010 6fc16ec1 6dc16cc1 6bc16ac1 69c168c1  o.n.m.l.k.j.i.h.
 0020 67c166c1 65c164c1 63c162c1 61c160c1  g.f.e.d.c.b.a.`.
 0030 5fc15ec1 0f931f93 082f192f 84e090e0  _.^.....././....
 0040 0e945701 a82fb92f 80e090e0 a817b907  ..W.././........
 0050 99f021e0 30e02d93 3d9320e0 31e0ea2f  ..!.0.-.=. .1../
 0060 fb2f2083 318320e0 e02ff12f 21938083  ./ .1. .././!...
 0070 91831f91 0f910895 0e940001 0e94bb05  ................
 0080 80e08bb9 fecf0895 a82fb92f ea2ffb2f  ........././././
 0090 82819381 20e030e0 82179307 21f08d91  .... .0.....!...
 00a0 9c910e94 5a010895 0e944f01 0e94bb05  ....Z.....O.....
 00b0 813009f0 0895862f 0e945400 0e94bb05  .0...../..T.....
 00c0 88e091e0 0e945301 0e94bb05 cf93df93  ......S.........
 00d0 0f931f93 cdb7deb7 2c970fb6 f894debf  ........,.......
 00e0 0fbecdbf 8fef8ab9 8bb98e01 0c5f1f4f  ............._.O
 00f0 802f912f 0e94e500 802f912f 0e94a200  ././....././....
 0100 e82ff92f 83e08087 80e390e0 86839783  ././............
 0110 ce010196 0e941a00 6a818981 0e945800  ........j.....X.
 0120 802f912f 0e944400 0e947901 0e94bb05  ././..D...y.....
 0130 682f792f 80e090e0 0e948704 08950e94  h/y/............
 0140 ba040895 cf93df93 ef92ff92 0f931f93  ................
 0150 cdb7deb7 26970fb6 f894debf 0fbecdbf  ....&...........
 0160 082f192f ce010196 6ce271e0 44e050e0  ././....l.q.D.P.
 0170 0e940801 e02ef12e e02ff12f 82819381  ........././....
 0180 20e030e0 82179307 31f0ae2d bf2d8d91   .0.....1..-.-..
 0190 9c910e94 5a01be01 6f5f7f4f 46e050e0  ....Z...o_.OF.P.
 01a0 0e2d1f2d 802f912f 0e94c105 802f912f  .-.-././....././
 01b0 26960fb6 f894debf 0fbecdbf 1f910f91  &...............
 01c0 ff90ef90 df91cf91 08950f93 1f93082f  .............../
 01d0 192f69e4 71e049e0 50e00e94 080181e0  ./i.q.I.P.......
 01e0 e02ff12f 808780e0 94e08683 97831f91  ././............
 01f0 0f910895 88e191e0 0e945301 0e94bb05  ..........S.....
 0200 0e946000 0e94bb05 0e94fa00 0e94bb05  ..`.............
 0210 af92bf92 cf92df92 ef92ff92 0f931f93  ................
 0220 042f152f e62ef72e 212f2223 0af433c0  ././....!/"#..3.
 0230 c82ed92e 80e090e0 08171907 69f0a82e  ............i...
 0240 b92e802f 912f0e94 57018a15 9b0531f4  ..././..W.....1.
 0250 0e940001 0e94bb05 81e090e0 a82eb92e  ................
 0260 6e2d7f2d 402f512f 0e94c105 ac2dbd2d  n-.-@/Q/.....-.-
 0270 ea2ffb2f 04831583 ad92bd92 ea2ffb2f  ././........././
 0280 00831183 1f910f91 ff90ef90 df90cf90  ................
 0290 bf90af90 08950e94 04010e94 bb050e94  ................
 02a0 bb050e94 bb050e94 4f010e94 bb050e94  ........O.......
 02b0 98000895 0e949f00 08951124 1fbecfef  ...........$....
 02c0 d4e0debf cdbf11e0 a0e0b1e0 e8e9fbe0  ................
 02d0 02c00590 0d92aa3a b107d9f7 24e0aaea  .......:....$...
 02e0 b1e001c0 1d92ac30 b207e1f7 efde47c4  .......0......G.
 02f0 87ce31c1 e091ce01 f091cf01 80818111  ..1.............
 0300 07c08fef 9fef9093 ae018093 ad010895  ................
 0310 e091ce01 f091cf01 0580f681 e02d0680  .............-..
 0320 f781e02d 82819381 eecf8091 b9018111  ...-............
 0330 06c08091 e2018230 c0f3c5d3 f6cf0fb6  .......0........
 0340 f8940f92 e091bf01 f091c001 c681d781  ................
 0350 ce010296 b8d28091 b8018150 8093b801  ...........P....
 0360 8091b901 81508093 b9010f90 0fbe8f89  .....P..........
 0370 988d00d3 ce01fed2 d8cf5f92 6f927f92  .........._.o...
 0380 8f929f92 af92bf92 cf92df92 ef92ff92  ................
 0390 0f931f93 cf93df93 782e192f 6b015a01  ........x../k.Z.
 03a0 622e532e 4701ca01 b2d27c01 892b79f0  b.S.G.....|..+y.
 03b0 86e290e0 acd2ec01 009739f0 f88eef8a  ..........9.....
 03c0 c114d104 a9f4198e 28c0c701 d3d28fef  ........(.......
 03d0 df91cf91 1f910f91 ff90ef90 df90cf90  ................
 03e0 bf90af90 9f908f90 7f906f90 5f900895  ..........o._...
 03f0 f601ac01 475e5f4f c6010896 2191da01  ....G^_O....!...
 0400 2d93ad01 9f012150 3109d901 2c912223  -.....!P1...,."#
 0410 19f08e17 9f0791f7 18a20430 08f003e0  ...........0....
 0420 0e8b6e01 b2e0cb0e d11cc601 28d2ce01  ..n.........(...
 0430 0c9625d2 d987c887 84e090e0 801b9109  ..%.............
 0440 9d878c87 db8bca8b 19a21aa2 1ba21ca2  ................
 0450 1da2c501 0197462d 552d672d 712f8e0d  ......F-U-g-q/..
 0460 9f1d89d2 99838883 81149104 19f0f401  ................
 0470 d183c083 0fb6f894 0f928091 b8018f5f  ..............._
 0480 8093b801 80910602 90910702 892b09f0  .............+..
 0490 51c0d093 0702c093 06028091 b8018130  Q..............0
 04a0 21f582ee 91e0ddd1 8bee91e0 dad184ef  !...............
 04b0 91e0d7d1 8def91e0 d4d189ed 91e0d1d1  ................
 04c0 80ed91e0 ced183ec 91e0cbd1 8aeb91e0  ................
 04d0 c8d189ed 91e09093 cf018093 ce0180ed  ................
 04e0 91e09093 cd018093 cc018091 af018f5f  ..............._
 04f0 8093af01 8e899091 b5019817 10f48093  ................
 0500 b501f9e0 8f9fc001 1124b601 8e519e4f  .........$...Q.O
 0510 bad10f90 0fbe8091 b4018823 49f0e091  ...........#I...
 0520 0602f091 07029689 8e899817 08f4cbd2  ................
 0530 81e04ecf 8091b401 8111d7cf e0910602  ..N.............
 0540 f0910702 96898e89 891778f2 d0930702  ..........x.....
 0550 c0930602 cacfef92 ff920f93 8beae82e  ................
 0560 81e0f82e 00e030e0 20e040e2 50e065ea  ......0. .@.P.e.
 0570 71e085e9 91e001df 813089f4 f8942fef  q........0..../.
 0580 3fef3093 ae012093 ad018093 b4011092  ?.0... .........
 0590 b7011092 b6010f91 ff90ef90 5ac20f91  ............Z...
 05a0 ff90ef90 08958091 aa018f5f 8093aa01  ..........._....
 05b0 0895cf92 df92ef92 ff920f93 1f93cf93  ................
 05c0 df938091 aa018111 92c00091 b6011091  ................
 05d0 b7010f5f 1f4f1093 b7010093 b6010115  ..._.O..........
 05e0 1105b1f4 8091ce01 9091cf01 2091cc01  ............ ...
 05f0 3091cd01 3093cf01 2093ce01 9093cd01  0...0... .......
 0600 8093cc01 8091b001 8f5f8093 b00172de  ........._....r.
 0610 8091ad01 9091ae01 c0e00817 1907e8f4  ................
 0620 e0910602 f0910702 e689b9e0 eb9ff001  ................
 0630 1124ee51 fe4f8081 823008f0 c1e08091  .$.Q.O...0......
 0640 b1018111 c1e08c2f df91cf91 1f910f91  ......./........
 0650 ff90ef90 df90cf90 0895d9e0 e091ce01  ................
 0660 f091cf01 80818111 07c08fef 9fef9093  ................
 0670 ae018093 ad01d4cf e091ce01 f091cf01  ................
 0680 0580f681 e02de680 f780d701 12968d91  .....-..........
 0690 9c910817 190758f3 6701b2e0 cb0ed11c  ......X.g.......
 06a0 c60111d1 f7018489 9589892b 19f0c701  ...........+....
 06b0 0c9609d1 d7015696 8c919091 b5019817  ......V.........
 06c0 10f48093 b5018d9f c0011124 b6018e51  ...........$...Q
 06d0 9e4fd9d0 e0910602 f0910702 d7015696  .O............V.
 06e0 9c918689 981708f4 b9cfc1e0 b7cf8091  ................
 06f0 b2019091 b3010196 9093b301 8093b201  ................
 0700 c0e0a1cf ef92ff92 0f931f93 cf93df93  ................
 0710 0fb6f894 0f928091 aa018150 8093aa01  ...........P....
 0720 8091aa01 882351f0 80e00f90 0fbedf91  .....#Q.........
 0730 cf911f91 0f91ff90 ef900895 8091b801  ................
 0740 882391f3 d0e0c0e0 89e0f82e ee24e394  .#...........$..
 0750 26c0e091 c801f091 c901c681 d781ce01  &...............
 0760 0c96b1d0 8e010e5f 1f4fc801 acd08e89  ......._.O......
 0770 9091b501 981710f4 8093b501 8f9dc001  ................
 0780 1124b801 8e519e4f 7ed0e091 0602f091  .$...Q.O~.......
 0790 07029e89 86899817 10f0e092 b1018091  ................
 07a0 c3018111 d6cfcd2b 09f0a4dd c091b201  .......+........
 07b0 d091b301 209759f0 11e0fbde 81111093  .... .Y.........
 07c0 b1012197 d1f71092 b3011092 b2018091  ..!.............
 07d0 b1018823 09f4a8cf 76d181e0 a6cf8091  ...#....v.......
 07e0 aa018823 21f081e0 8093b101 08951092  ...#!...........
 07f0 b1018091 b50129e0 482f50e0 289ff001  ......).H/P.(...
 0800 1124ee51 fe4f9081 992349f1 a181b281  .$.Q.O...#I.....
 0810 12960d90 bc91a02d b283a183 829f9001  .......-........
 0820 11242b51 3e4fa217 b30729f4 12962d91  .$+Q>O....)...-.
 0830 3c913283 218399e0 949ff001 959ff00d  <.2.!...........
 0840 1124ee51 fe4f0180 f281e02d 26813781  .$.Q.O.....-&.7.
 0850 30930702 20930602 8093b501 08958150  0... ..........P
 0860 cbcffc01 03969283 81832fef 3fef3483  ........../.?.4.
 0870 23839683 85839087 87831082 0895fc01  #...............
 0880 11861086 0895cf93 df939c01 fb01dc01  ................
 0890 1196cd91 dc91d383 c2838c81 9d819583  ................
 08a0 84838c81 9d81dc01 13967c93 6e931297  ..........|.n...
 08b0 7d836c83 31872087 f9018081 8f5f8083  }.l.1. ......_..
 08c0 df91cf91 0895cf93 df93fc01 a085b185  ................
 08d0 82819381 24813581 ec013d83 2c83c481  ....$.5...=.,...
 08e0 d5819b83 8a831196 8d919c91 12978e17  ................
 08f0 9f0721f4 1296dc93 ce931197 11861086  ..!.............
 0900 8c918150 8c938c91 df91cf91 08950f93  ...P............
 0910 1f93cf93 df93ec01 46de8091 08029091  ........F.......
 0920 0902892b 31f48de0 92e09093 09028093  ...+1...........
 0930 08028091 0a029091 0b02c80f d91fcf3f  ...............?
 0940 21e0d207 a0f48c17 9d0788f4 00910802  !...............
 0950 10910902 080f191f d0930b02 c0930a02  ................
 0960 d1dec801 df91cf91 1f910f91 089510e0  ................
 0970 00e0f6cf 0895fc01 91e19083 df011197  ................
 0980 82e28c93 119723e3 2c931197 6c931197  ......#.,...l...
 0990 7c931197 1c921197 20e82c93 11971c92  |....... .,.....
 09a0 119722e0 2c931197 23e02c93 119724e0  ..".,...#.,...$.
 09b0 2c931197 25e02c93 119726e0 2c931197  ,...%.,...&.,...
 09c0 27e02c93 119728e0 2c931197 29e02c93  '.,...(.,...).,.
 09d0 119720e1 2c931197 9c931197 92e19c93  .. .,...........
 09e0 119793e1 9c931197 94e19c93 119795e1  ................
 09f0 9c931197 96e19c93 119797e1 9c931197  ................
 0a00 98e19c93 119799e1 9c931197 90e29c93  ................
 0a10 119791e2 9c931197 8c931197 83e28c93  ................
 0a20 11974c93 11975c93 119786e2 8c931197  ..L...\.........
 0a30 87e28c93 119788e2 8c931197 89e28c93  ................
 0a40 119780e3 8c931197 81e38c93 cf018697  ................
 0a50 08951092 89008be9 80938800 8be08093  ................
 0a60 8100efe6 f0e08081 82608083 a0910602  .........`......
 0a70 b0910702 cd91cdbf dd91debf ff91ef91  ................
 0a80 df91cf91 bf91af91 9f918f91 7f916f91  ..............o.
 0a90 5f914f91 3f912f91 1f910f91 ff90ef90  _.O.?./.........
 0aa0 df90cf90 bf90af90 9f908f90 7f906f90  ..............o.
 0ab0 5f904f90 3f902f90 1f900f90 0fbe0f90  _.O.?./.........
 0ac0 089581e0 08950f92 0fb6f894 0f921f92  ................
 0ad0 11242f92 3f924f92 5f926f92 7f928f92  .$/.?.O._.o.....
 0ae0 9f92af92 bf92cf92 df92ef92 ff920f93  ................
 0af0 1f932f93 3f934f93 5f936f93 7f938f93  ../.?.O._.o.....
 0b00 9f93af93 bf93cf93 df93ef93 ff93a091  ................
 0b10 0602b091 07020db6 0d920eb6 0d925fde  .............._.
 0b20 a0910602 b0910702 cd91cdbf dd91debf  ................
 0b30 ff91ef91 df91cf91 bf91af91 9f918f91  ................
 0b40 7f916f91 5f914f91 3f912f91 1f910f91  ..o._.O.?./.....
 0b50 ff90ef90 df90cf90 bf90af90 9f908f90  ................
 0b60 7f906f90 5f904f90 3f902f90 1f900f90  ..o._.O.?./.....
 0b70 0fbe0f90 089581e0 90e0f894 0bc0f894  ................
 0b80 09c0fb01 dc0102c0 01900d92 41505040  ............APP@
 0b90 d8f70895 f894ffcf                    ........        
Contents of section .comment:
 0000 4743433a 2028474e 55292039 2e332e30  GCC: (GNU) 9.3.0
 0010 00                                   .               
Contents of section .note.gnu.avr.deviceinfo:
 0000 04000000 2d000000 01000000 41565200  ....-.......AVR.
 0010 00000000 00200000 00010000 00040000  ..... ..........
 0020 00000000 00020000 08000000 01000000  ................
 0030 0061746d 65676138 38706100 00000000  .atmega88pa.....
Contents of section .debug_info:
 0000 f0050000 02000000 00000401 00000000  ................
 0010 00000000 020f0000 00010803 17000000  ................
 0020 02070414 00000005 1b000000 ff010006  ................
 0030 20000000 00002200 00000105 03000081   .....".........
 0040 00072900 00000000 14000000 010503c6  ..).............
 0050 00800008 2e000000 00001400 00000105  ................
 0060 03c00080 00093500 00000000 14000000  ......5.........
 0070 010503c1 0080000a 3c000000 00001400  ........<.......
 0080 00000105 03c20080 000b4300 00000000  ..........C.....
 0090 1b000000 010503c4 0080000c 49000000  ............I...
 00a0 00001400 00000105 03bd0080 000d4f00  ..............O.
 00b0 00000000 14000000 010503b8 0080000e  ................
 00c0 54000000 00001400 00000105 03bc0080  T...............
 00d0 000f5900 00000000 14000000 010503b9  ..Y.............
 00e0 00800010 5e000000 00001400 00000105  ....^...........
 00f0 03bb0080 00116300 00000000 14000000  ......c.........
 0100 010503ba 00800012 68000000 00001400  ........h.......
 0110 00000105 036f0080 00136f00 00000000  .....o....o.....
 0120 14000000 01050336 00800014 75000000  .......6....u...
 0130 00001400 00000105 03800080 00157c00  ..............|.
 0140 00000000 14000000 01050381 00800016  ................
 0150 83000000 00001400 00000105 03820080  ................
 0160 00178a00 00000000 1b000000 01050384  ................
 0170 00800018 90000000 00001b00 00000105  ................
 0180 03880080 00199600 00000000 1b000000  ................
 0190 0105038a 0080001a 9c000000 00001b00  ................
 01a0 00000105 03860080 001ba100 00000000  ................
 01b0 14000000 01050343 0080001c a7000000  .......C........
 01c0 00001400 00000105 03700080 001dae00  .........p......
 01d0 00000000 14000000 01050337 0080001e  ...........7....
 01e0 b4000000 00001400 00000105 03b00080  ................
 01f0 001fbb00 00000000 14000000 010503b1  ................
 0200 00800020 c2000000 00001400 00000105  ... ............
 0210 03b20080 0021c800 00000000 14000000  .....!..........
 0220 010503b4 00800022 ce000000 00001400  ......."........
 0230 00000105 03b30080 0023d400 00000000  .........#......
 0240 14000000 010503b6 00800024 d9000000  ...........$....
 0250 00001400 00000105 03430080 0025df00  .........C...%..
 0260 00000000 14000000 0105037c 00800026  ...........|...&
 0270 e5000000 00001b00 00000105 03780080  .............x..
 0280 0027e900 00000000 14000000 0105037a  .'.............z
 0290 00800028 f0000000 00001400 00000105  ...(............
 02a0 037b0080 0029f700 00000000 14000000  .{...)..........
 02b0 0105037e 0080002a fd000000 00001400  ...~...*........
 02c0 00000105 03500080 002b0201 00000000  .....P...+......
 02d0 14000000 0105037f 0080002c 08010000  ...........,....
 02e0 00001400 00000105 03250080 002d0e01  .........%...-..
 02f0 00000000 14000000 01050324 0080002e  ...........$....
 0300 13010000 00001400 00000105 03230080  .............#..
 0310 002f1801 00000000 14000000 01050328  ./.............(
 0320 00800030 1e010000 00001400 00000105  ...0............
 0330 03270080 00312301 00000000 14000000  .'...1#.........
 0340 01050326 00800032 28010000 00001400  ...&...2(.......
 0350 00000105 032b0080 00332e01 00000000  .....+...3......
 0360 14000000 0105032a 00800034 33010000  .......*...43...
 0370 00001400 00000105 03290080 00353801  .........)...58.
 0380 00000000 14000000 01050348 00800036  ...........H...6
 0390 3e010000 00001400 00000105 03470080  >............G..
 03a0 00374401 00000000 14000000 01050346  .7D............F
 03b0 00800038 4a010000 00001400 00000105  ...8J...........
 03c0 03450080 00395101 00000000 14000000  .E...9Q.........
 03d0 01050344 0080003a 58010000 00001400  ...D...:X.......
 03e0 00000105 036e0080 003b5f01 00000000  .....n...;_.....
 03f0 14000000 01050335 0080003c 65010000  .......5...<e...
 0400 00001400 00000105 03430080 003d6b01  .........C...=k.
 0410 00000000 14000000 01050369 0080003e  ...........i...>
 0420 71010000 00001400 00000105 033d0080  q............=..
 0430 003f7701 00000000 14000000 0105033c  .?w............<
 0440 00800040 7c010000 00001400 00000105  ...@|...........
 0450 03680080 00418201 00000000 14000000  .h...A..........
 0460 0105036d 00800042 89010000 00001400  ...m...B........
 0470 00000105 036c0080 00439001 00000000  .....l...C......
 0480 14000000 0105036b 00800044 97010000  .......k...D....
 0490 00001400 00000105 033b0080 00459d01  .........;...E..
 04a0 00000000 14000000 0105034e 00800046  ...........N...F
 04b0 a2010000 00001400 00000105 034d0080  .............M..
 04c0 0047a701 00000000 14000000 0105034c  .G.............L
 04d0 00800048 ac010000 00001400 00000105  ...H............
 04e0 03600080 0049b301 00000000 1b000000  .`...I..........
 04f0 01050341 0080004a b8010000 00001400  ...A...J........
 0500 00000105 03400080 004bbd01 00000000  .....@...K......
 0510 14000000 0105033f 0080004c c2010000  .......?...L....
 0520 00001400 00000105 03640080 004dc601  .........d...M..
 0530 00000000 14000000 01050366 0080004e  ...........f...N
 0540 cd010000 00001400 00000105 03610080  .............a..
 0550 004fd301 00000000 14000000 0105035f  .O............._
 0560 00800050 d8010000 00001b00 00000105  ...P............
 0570 035d0080 0051db01 00000000 14000000  .]...Q..........
 0580 01050357 00800052 e2010000 00001400  ...W...R........
 0590 00000105 03550080 0053e801 00000000  .....U...S......
 05a0 14000000 01050354 00800054 ee010000  .......T...T....
 05b0 00001400 00000105 03530080 0055f301  .........S...U..
 05c0 00000000 14000000 0105034b 00800056  ...........K...V
 05d0 fa010000 00001400 00000105 034a0080  .............J..
 05e0 00570102 00000000 14000000 0105033e  .W.............>
 05f0 00800000                             ....            
Contents of section .debug_abbrev:
 0000 01110125 0e100600 00022400 030e0b0b  ...%......$.....
 0010 3e0b0000 03240003 0e0b0b3e 0b000004  >....$.....>....
 0020 01014913 00000521 0049132f 05000006  ..I....!.I./....
 0030 3400030e 3a0b3b0b 49133f0c 020a0000  4...:.;.I.?.....
 0040 07340003 0e3a0b3b 0b49133f 0c020a00  .4...:.;.I.?....
 0050 00083400 030e3a0b 3b0b4913 3f0c020a  ..4...:.;.I.?...
 0060 00000934 00030e3a 0b3b0b49 133f0c02  ...4...:.;.I.?..
 0070 0a00000a 3400030e 3a0b3b0b 49133f0c  ....4...:.;.I.?.
 0080 020a0000 0b340003 0e3a0b3b 0b49133f  .....4...:.;.I.?
 0090 0c020a00 000c3400 030e3a0b 3b0b4913  ......4...:.;.I.
 00a0 3f0c020a 00000d34 00030e3a 0b3b0b49  ?......4...:.;.I
 00b0 133f0c02 0a00000e 3400030e 3a0b3b0b  .?......4...:.;.
 00c0 49133f0c 020a0000 0f340003 0e3a0b3b  I.?......4...:.;
 00d0 0b49133f 0c020a00 00103400 030e3a0b  .I.?......4...:.
 00e0 3b0b4913 3f0c020a 00001134 00030e3a  ;.I.?......4...:
 00f0 0b3b0b49 133f0c02 0a000012 3400030e  .;.I.?......4...
 0100 3a0b3b0b 49133f0c 020a0000 13340003  :.;.I.?......4..
 0110 0e3a0b3b 0b49133f 0c020a00 00143400  .:.;.I.?......4.
 0120 030e3a0b 3b0b4913 3f0c020a 00001534  ..:.;.I.?......4
 0130 00030e3a 0b3b0b49 133f0c02 0a000016  ...:.;.I.?......
 0140 3400030e 3a0b3b0b 49133f0c 020a0000  4...:.;.I.?.....
 0150 17340003 0e3a0b3b 0b49133f 0c020a00  .4...:.;.I.?....
 0160 00183400 030e3a0b 3b0b4913 3f0c020a  ..4...:.;.I.?...
 0170 00001934 00030e3a 0b3b0b49 133f0c02  ...4...:.;.I.?..
 0180 0a00001a 3400030e 3a0b3b0b 49133f0c  ....4...:.;.I.?.
 0190 020a0000 1b340003 0e3a0b3b 0b49133f  .....4...:.;.I.?
 01a0 0c020a00 001c3400 030e3a0b 3b0b4913  ......4...:.;.I.
 01b0 3f0c020a 00001d34 00030e3a 0b3b0b49  ?......4...:.;.I
 01c0 133f0c02 0a00001e 3400030e 3a0b3b0b  .?......4...:.;.
 01d0 49133f0c 020a0000 1f340003 0e3a0b3b  I.?......4...:.;
 01e0 0b49133f 0c020a00 00203400 030e3a0b  .I.?..... 4...:.
 01f0 3b0b4913 3f0c020a 00002134 00030e3a  ;.I.?.....!4...:
 0200 0b3b0b49 133f0c02 0a000022 3400030e  .;.I.?....."4...
 0210 3a0b3b0b 49133f0c 020a0000 23340003  :.;.I.?.....#4..
 0220 0e3a0b3b 0b49133f 0c020a00 00243400  .:.;.I.?.....$4.
 0230 030e3a0b 3b0b4913 3f0c020a 00002534  ..:.;.I.?.....%4
 0240 00030e3a 0b3b0b49 133f0c02 0a000026  ...:.;.I.?.....&
 0250 3400030e 3a0b3b0b 49133f0c 020a0000  4...:.;.I.?.....
 0260 27340003 0e3a0b3b 0b49133f 0c020a00  '4...:.;.I.?....
 0270 00283400 030e3a0b 3b0b4913 3f0c020a  .(4...:.;.I.?...
 0280 00002934 00030e3a 0b3b0b49 133f0c02  ..)4...:.;.I.?..
 0290 0a00002a 3400030e 3a0b3b0b 49133f0c  ...*4...:.;.I.?.
 02a0 020a0000 2b340003 0e3a0b3b 0b49133f  ....+4...:.;.I.?
 02b0 0c020a00 002c3400 030e3a0b 3b0b4913  .....,4...:.;.I.
 02c0 3f0c020a 00002d34 00030e3a 0b3b0b49  ?.....-4...:.;.I
 02d0 133f0c02 0a00002e 3400030e 3a0b3b0b  .?......4...:.;.
 02e0 49133f0c 020a0000 2f340003 0e3a0b3b  I.?...../4...:.;
 02f0 0b49133f 0c020a00 00303400 030e3a0b  .I.?.....04...:.
 0300 3b0b4913 3f0c020a 00003134 00030e3a  ;.I.?.....14...:
 0310 0b3b0b49 133f0c02 0a000032 3400030e  .;.I.?.....24...
 0320 3a0b3b0b 49133f0c 020a0000 33340003  :.;.I.?.....34..
 0330 0e3a0b3b 0b49133f 0c020a00 00343400  .:.;.I.?.....44.
 0340 030e3a0b 3b0b4913 3f0c020a 00003534  ..:.;.I.?.....54
 0350 00030e3a 0b3b0b49 133f0c02 0a000036  ...:.;.I.?.....6
 0360 3400030e 3a0b3b0b 49133f0c 020a0000  4...:.;.I.?.....
 0370 37340003 0e3a0b3b 0b49133f 0c020a00  74...:.;.I.?....
 0380 00383400 030e3a0b 3b0b4913 3f0c020a  .84...:.;.I.?...
 0390 00003934 00030e3a 0b3b0b49 133f0c02  ..94...:.;.I.?..
 03a0 0a00003a 3400030e 3a0b3b0b 49133f0c  ...:4...:.;.I.?.
 03b0 020a0000 3b340003 0e3a0b3b 0b49133f  ....;4...:.;.I.?
 03c0 0c020a00 003c3400 030e3a0b 3b0b4913  .....<4...:.;.I.
 03d0 3f0c020a 00003d34 00030e3a 0b3b0b49  ?.....=4...:.;.I
 03e0 133f0c02 0a00003e 3400030e 3a0b3b0b  .?.....>4...:.;.
 03f0 49133f0c 020a0000 3f340003 0e3a0b3b  I.?.....?4...:.;
 0400 0b49133f 0c020a00 00403400 030e3a0b  .I.?.....@4...:.
 0410 3b0b4913 3f0c020a 00004134 00030e3a  ;.I.?.....A4...:
 0420 0b3b0b49 133f0c02 0a000042 3400030e  .;.I.?.....B4...
 0430 3a0b3b0b 49133f0c 020a0000 43340003  :.;.I.?.....C4..
 0440 0e3a0b3b 0b49133f 0c020a00 00443400  .:.;.I.?.....D4.
 0450 030e3a0b 3b0b4913 3f0c020a 00004534  ..:.;.I.?.....E4
 0460 00030e3a 0b3b0b49 133f0c02 0a000046  ...:.;.I.?.....F
 0470 3400030e 3a0b3b0b 49133f0c 020a0000  4...:.;.I.?.....
 0480 47340003 0e3a0b3b 0b49133f 0c020a00  G4...:.;.I.?....
 0490 00483400 030e3a0b 3b0b4913 3f0c020a  .H4...:.;.I.?...
 04a0 00004934 00030e3a 0b3b0b49 133f0c02  ..I4...:.;.I.?..
 04b0 0a00004a 3400030e 3a0b3b0b 49133f0c  ...J4...:.;.I.?.
 04c0 020a0000 4b340003 0e3a0b3b 0b49133f  ....K4...:.;.I.?
 04d0 0c020a00 004c3400 030e3a0b 3b0b4913  .....L4...:.;.I.
 04e0 3f0c020a 00004d34 00030e3a 0b3b0b49  ?.....M4...:.;.I
 04f0 133f0c02 0a00004e 3400030e 3a0b3b0b  .?.....N4...:.;.
 0500 49133f0c 020a0000 4f340003 0e3a0b3b  I.?.....O4...:.;
 0510 0b49133f 0c020a00 00503400 030e3a0b  .I.?.....P4...:.
 0520 3b0b4913 3f0c020a 00005134 00030e3a  ;.I.?.....Q4...:
 0530 0b3b0b49 133f0c02 0a000052 3400030e  .;.I.?.....R4...
 0540 3a0b3b0b 49133f0c 020a0000 53340003  :.;.I.?.....S4..
 0550 0e3a0b3b 0b49133f 0c020a00 00543400  .:.;.I.?.....T4.
 0560 030e3a0b 3b0b4913 3f0c020a 00005534  ..:.;.I.?.....U4
 0570 00030e3a 0b3b0b49 133f0c02 0a000056  ...:.;.I.?.....V
 0580 3400030e 3a0b3b0b 49133f0c 020a0000  4...:.;.I.?.....
 0590 57340003 0e3a0b3b 0b49133f 0c020a00  W4...:.;.I.?....
 05a0 0000                                 ..              
Contents of section .debug_line:
 0000 19000000 02001300 00000201 fb0e0d00  ................
 0010 01010101 00000001 00000100 00        .............   
Contents of section .debug_str:
 0000 6176722d 6c696263 20322e30 2e300075  avr-libc 2.0.0.u
 0010 696e7438 5f740075 696e7431 365f7400  int8_t.uint16_t.
 0020 5f5f6565 70726f6d 00554452 30005543  __eeprom.UDR0.UC
 0030 53523041 00554353 52304200 55435352  SR0A.UCSR0B.UCSR
 0040 30430055 42525230 00545741 4d520054  0C.UBRR0.TWAMR.T
 0050 57425200 54574352 00545753 52005457  WBR.TWCR.TWSR.TW
 0060 44520054 57415200 54494d53 4b310054  DR.TWAR.TIMSK1.T
 0070 49465231 00544343 52314100 54434352  IFR1.TCCR1A.TCCR
 0080 31420054 43435231 43005443 4e543100  1B.TCCR1C.TCNT1.
 0090 4f435231 41004f43 52314200 49435231  OCR1A.OCR1B.ICR1
 00a0 00475443 43520054 494d534b 32005449  .GTCCR.TIMSK2.TI
 00b0 46523200 54434352 32410054 43435232  FR2.TCCR2A.TCCR2
 00c0 42005443 4e543200 4f435232 42004f43  B.TCNT2.OCR2B.OC
 00d0 52324100 41535352 00475443 43520041  R2A.ASSR.GTCCR.A
 00e0 444d5558 00414443 00414443 53524100  DMUX.ADC.ADCSRA.
 00f0 41444353 52420044 49445230 00414353  ADCSRB.DIDR0.ACS
 0100 52004449 44523100 504f5254 42004444  R.DIDR1.PORTB.DD
 0110 52420050 494e4200 504f5254 43004444  RB.PINB.PORTC.DD
 0120 52430050 494e4300 504f5254 44004444  RC.PINC.PORTD.DD
 0130 52440050 494e4400 4f435230 42004f43  RD.PIND.OCR0B.OC
 0140 52304100 54434e54 30005443 43523042  R0A.TCNT0.TCCR0B
 0150 00544343 52304100 54494d53 4b300054  .TCCR0A.TIMSK0.T
 0160 49465230 00475443 43520045 49435241  IFR0.GTCCR.EICRA
 0170 0045494d 534b0045 49465200 50434943  .EIMSK.EIFR.PCIC
 0180 52005043 4d534b32 0050434d 534b3100  R.PCMSK2.PCMSK1.
 0190 50434d53 4b300050 43494652 00535044  PCMSK0.PCIFR.SPD
 01a0 52005350 53520053 50435200 57445443  R.SPSR.SPCR.WDTC
 01b0 53520045 45415200 45454452 00454543  SR.EEAR.EEDR.EEC
 01c0 52005052 52004f53 4343414c 00434c4b  R.PRR.OSCCAL.CLK
 01d0 50520053 52454700 53500053 504d4353  PR.SREG.SP.SPMCS
 01e0 52004d43 55435200 4d435553 5200534d  R.MCUCR.MCUSR.SM
 01f0 43520047 50494f52 32004750 494f5231  CR.GPIOR2.GPIOR1
 0200 00475049 4f523000                    .GPIOR0.        

Disassembly of section .text:

00000000 <__vectors>:
   0:	5c c1       	rjmp	.+696    	; 0x2ba <__ctors_end>
   2:	76 c1       	rjmp	.+748    	; 0x2f0 <__bad_interrupt>
   4:	75 c1       	rjmp	.+746    	; 0x2f0 <__bad_interrupt>
   6:	74 c1       	rjmp	.+744    	; 0x2f0 <__bad_interrupt>
   8:	73 c1       	rjmp	.+742    	; 0x2f0 <__bad_interrupt>
   a:	72 c1       	rjmp	.+740    	; 0x2f0 <__bad_interrupt>
   c:	71 c1       	rjmp	.+738    	; 0x2f0 <__bad_interrupt>
   e:	70 c1       	rjmp	.+736    	; 0x2f0 <__bad_interrupt>
  10:	6f c1       	rjmp	.+734    	; 0x2f0 <__bad_interrupt>
  12:	6e c1       	rjmp	.+732    	; 0x2f0 <__bad_interrupt>
  14:	6d c1       	rjmp	.+730    	; 0x2f0 <__bad_interrupt>
  16:	6c c1       	rjmp	.+728    	; 0x2f0 <__bad_interrupt>
  18:	6b c1       	rjmp	.+726    	; 0x2f0 <__bad_interrupt>
  1a:	6a c1       	rjmp	.+724    	; 0x2f0 <__bad_interrupt>
  1c:	69 c1       	rjmp	.+722    	; 0x2f0 <__bad_interrupt>
  1e:	68 c1       	rjmp	.+720    	; 0x2f0 <__bad_interrupt>
  20:	67 c1       	rjmp	.+718    	; 0x2f0 <__bad_interrupt>
  22:	66 c1       	rjmp	.+716    	; 0x2f0 <__bad_interrupt>
  24:	65 c1       	rjmp	.+714    	; 0x2f0 <__bad_interrupt>
  26:	64 c1       	rjmp	.+712    	; 0x2f0 <__bad_interrupt>
  28:	63 c1       	rjmp	.+710    	; 0x2f0 <__bad_interrupt>
  2a:	62 c1       	rjmp	.+708    	; 0x2f0 <__bad_interrupt>
  2c:	61 c1       	rjmp	.+706    	; 0x2f0 <__bad_interrupt>
  2e:	60 c1       	rjmp	.+704    	; 0x2f0 <__bad_interrupt>
  30:	5f c1       	rjmp	.+702    	; 0x2f0 <__bad_interrupt>
  32:	5e c1       	rjmp	.+700    	; 0x2f0 <__bad_interrupt>

00000034 <_ZN11freertos_rs4task11TaskBuilder5start17h74209158bc831b69E>:
  34:	0f 93       	push	r16
  36:	1f 93       	push	r17
  38:	08 2f       	mov	r16, r24
  3a:	19 2f       	mov	r17, r25
  3c:	84 e0       	ldi	r24, 0x04	; 4
  3e:	90 e0       	ldi	r25, 0x00	; 0
  40:	0e 94 57 01 	call	0x2ae	; 0x2ae <__rust_alloc>
  44:	a8 2f       	mov	r26, r24
  46:	b9 2f       	mov	r27, r25
  48:	80 e0       	ldi	r24, 0x00	; 0
  4a:	90 e0       	ldi	r25, 0x00	; 0
  4c:	a8 17       	cp	r26, r24
  4e:	b9 07       	cpc	r27, r25
  50:	99 f0       	breq	.+38     	; 0x78 <LBB0_2>
  52:	21 e0       	ldi	r18, 0x01	; 1
  54:	30 e0       	ldi	r19, 0x00	; 0
  56:	2d 93       	st	X+, r18
  58:	3d 93       	st	X+, r19
  5a:	20 e0       	ldi	r18, 0x00	; 0
  5c:	31 e0       	ldi	r19, 0x01	; 1
  5e:	ea 2f       	mov	r30, r26
  60:	fb 2f       	mov	r31, r27
  62:	20 83       	st	Z, r18
  64:	31 83       	std	Z+1, r19	; 0x01
  66:	20 e0       	ldi	r18, 0x00	; 0
  68:	e0 2f       	mov	r30, r16
  6a:	f1 2f       	mov	r31, r17
  6c:	21 93       	st	Z+, r18
  6e:	80 83       	st	Z, r24
  70:	91 83       	std	Z+1, r25	; 0x01
  72:	1f 91       	pop	r17
  74:	0f 91       	pop	r16
  76:	08 95       	ret

00000078 <LBB0_2>:
  78:	0e 94 00 01 	call	0x200	; 0x200 <_ZN5alloc5alloc18handle_alloc_error17h35c9228e318decccE>
  7c:	0e 94 bb 05 	call	0xb76	; 0xb76 <abort>

00000080 <_ZN4core3ops8function6FnOnce40call_once$u7b$$u7b$vtable.shim$u7d$$u7d$17h9699866a8d8b37e8E>:
  80:	80 e0       	ldi	r24, 0x00	; 0

00000082 <LBB1_1>:
  82:	8b b9       	out	0x0b, r24	; 11
  84:	fe cf       	rjmp	.-4      	; 0x82 <LBB1_1>

00000086 <_ZN4core3ptr18real_drop_in_place17hba539c6031de7f50E>:
  86:	08 95       	ret

00000088 <_ZN4core3ptr18real_drop_in_place17hbc9eeae21324858dE>:
  88:	a8 2f       	mov	r26, r24
  8a:	b9 2f       	mov	r27, r25
  8c:	ea 2f       	mov	r30, r26
  8e:	fb 2f       	mov	r31, r27
  90:	82 81       	ldd	r24, Z+2	; 0x02
  92:	93 81       	ldd	r25, Z+3	; 0x03
  94:	20 e0       	ldi	r18, 0x00	; 0
  96:	30 e0       	ldi	r19, 0x00	; 0
  98:	82 17       	cp	r24, r18
  9a:	93 07       	cpc	r25, r19
  9c:	21 f0       	breq	.+8      	; 0xa6 <LBB3_2>
  9e:	8d 91       	ld	r24, X+
  a0:	9c 91       	ld	r25, X
  a2:	0e 94 5a 01 	call	0x2b4	; 0x2b4 <__rust_dealloc>

000000a6 <LBB3_2>:
  a6:	08 95       	ret

000000a8 <_ZN4core6result13unwrap_failed17h2f2997bbd4a40747E>:
  a8:	0e 94 4f 01 	call	0x29e	; 0x29e <_ZN4core9panicking9panic_fmt17h66cace3606d5a84cE>
  ac:	0e 94 bb 05 	call	0xb76	; 0xb76 <abort>

000000b0 <_ZN4core6result19Result$LT$T$C$E$GT$6unwrap17h716194f5ff3c0cb4E>:
  b0:	81 30       	cpi	r24, 0x01	; 1
  b2:	09 f0       	breq	.+2      	; 0xb6 <LBB5_2>
  b4:	08 95       	ret

000000b6 <LBB5_2>:
  b6:	86 2f       	mov	r24, r22
  b8:	0e 94 54 00 	call	0xa8	; 0xa8 <_ZN4core6result13unwrap_failed17h2f2997bbd4a40747E>
  bc:	0e 94 bb 05 	call	0xb76	; 0xb76 <abort>

000000c0 <rust_oom>:
  c0:	88 e0       	ldi	r24, 0x08	; 8
  c2:	91 e0       	ldi	r25, 0x01	; 1
  c4:	0e 94 53 01 	call	0x2a6	; 0x2a6 <_ZN4core9panicking5panic17hfe0b70798e3f0071E>
  c8:	0e 94 bb 05 	call	0xb76	; 0xb76 <abort>

000000cc <main>:
  cc:	cf 93       	push	r28
  ce:	df 93       	push	r29
  d0:	0f 93       	push	r16
  d2:	1f 93       	push	r17
  d4:	cd b7       	in	r28, 0x3d	; 61
  d6:	de b7       	in	r29, 0x3e	; 62
  d8:	2c 97       	sbiw	r28, 0x0c	; 12
  da:	0f b6       	in	r0, 0x3f	; 63
  dc:	f8 94       	cli
  de:	de bf       	out	0x3e, r29	; 62
  e0:	0f be       	out	0x3f, r0	; 63
  e2:	cd bf       	out	0x3d, r28	; 61
  e4:	8f ef       	ldi	r24, 0xFF	; 255
  e6:	8a b9       	out	0x0a, r24	; 10
  e8:	8b b9       	out	0x0b, r24	; 11
  ea:	8e 01       	movw	r16, r28
  ec:	0c 5f       	subi	r16, 0xFC	; 252
  ee:	1f 4f       	sbci	r17, 0xFF	; 255
  f0:	80 2f       	mov	r24, r16
  f2:	91 2f       	mov	r25, r17
  f4:	0e 94 e5 00 	call	0x1ca	; 0x1ca <_ZN11freertos_rs4task4Task3new17hd0fbd62139516ec2E>
  f8:	80 2f       	mov	r24, r16
  fa:	91 2f       	mov	r25, r17
  fc:	0e 94 a2 00 	call	0x144	; 0x144 <_ZN11freertos_rs4task11TaskBuilder4name17h80783bf280f3a2e7E>
 100:	e8 2f       	mov	r30, r24
 102:	f9 2f       	mov	r31, r25
 104:	83 e0       	ldi	r24, 0x03	; 3
 106:	80 87       	std	Z+8, r24	; 0x08
 108:	80 e3       	ldi	r24, 0x30	; 48
 10a:	90 e0       	ldi	r25, 0x00	; 0
 10c:	86 83       	std	Z+6, r24	; 0x06
 10e:	97 83       	std	Z+7, r25	; 0x07
 110:	ce 01       	movw	r24, r28
 112:	01 96       	adiw	r24, 0x01	; 1
 114:	0e 94 1a 00 	call	0x34	; 0x34 <_ZN11freertos_rs4task11TaskBuilder5start17h74209158bc831b69E>
 118:	6a 81       	ldd	r22, Y+2	; 0x02
 11a:	89 81       	ldd	r24, Y+1	; 0x01
 11c:	0e 94 58 00 	call	0xb0	; 0xb0 <_ZN4core6result19Result$LT$T$C$E$GT$6unwrap17h716194f5ff3c0cb4E>
 120:	80 2f       	mov	r24, r16
 122:	91 2f       	mov	r25, r17
 124:	0e 94 44 00 	call	0x88	; 0x88 <_ZN4core3ptr18real_drop_in_place17hbc9eeae21324858dE>
 128:	0e 94 79 01 	call	0x2f2	; 0x2f2 <freertos_rs_vTaskStartScheduler>
 12c:	0e 94 bb 05 	call	0xb76	; 0xb76 <abort>

00000130 <__rg_alloc>:
 130:	68 2f       	mov	r22, r24
 132:	79 2f       	mov	r23, r25
 134:	80 e0       	ldi	r24, 0x00	; 0
 136:	90 e0       	ldi	r25, 0x00	; 0
 138:	0e 94 87 04 	call	0x90e	; 0x90e <pvPortMalloc>
 13c:	08 95       	ret

0000013e <__rg_dealloc>:
 13e:	0e 94 ba 04 	call	0x974	; 0x974 <vPortFree>
 142:	08 95       	ret

00000144 <_ZN11freertos_rs4task11TaskBuilder4name17h80783bf280f3a2e7E>:
 144:	cf 93       	push	r28
 146:	df 93       	push	r29
 148:	ef 92       	push	r14
 14a:	ff 92       	push	r15
 14c:	0f 93       	push	r16
 14e:	1f 93       	push	r17
 150:	cd b7       	in	r28, 0x3d	; 61
 152:	de b7       	in	r29, 0x3e	; 62
 154:	26 97       	sbiw	r28, 0x06	; 6
 156:	0f b6       	in	r0, 0x3f	; 63
 158:	f8 94       	cli
 15a:	de bf       	out	0x3e, r29	; 62
 15c:	0f be       	out	0x3f, r0	; 63
 15e:	cd bf       	out	0x3d, r28	; 61
 160:	08 2f       	mov	r16, r24
 162:	19 2f       	mov	r17, r25
 164:	ce 01       	movw	r24, r28
 166:	01 96       	adiw	r24, 0x01	; 1
 168:	6c e2       	ldi	r22, 0x2C	; 44
 16a:	71 e0       	ldi	r23, 0x01	; 1
 16c:	44 e0       	ldi	r20, 0x04	; 4
 16e:	50 e0       	ldi	r21, 0x00	; 0
 170:	0e 94 08 01 	call	0x210	; 0x210 <_ZN5alloc5slice64_$LT$impl$u20$alloc..borrow..ToOwned$u20$for$u20$$u5b$T$u5d$$GT$8to_owned17ha9aac9b3d541748eE>
 174:	e0 2e       	mov	r14, r16
 176:	f1 2e       	mov	r15, r17
 178:	e0 2f       	mov	r30, r16
 17a:	f1 2f       	mov	r31, r17
 17c:	82 81       	ldd	r24, Z+2	; 0x02
 17e:	93 81       	ldd	r25, Z+3	; 0x03
 180:	20 e0       	ldi	r18, 0x00	; 0
 182:	30 e0       	ldi	r19, 0x00	; 0
 184:	82 17       	cp	r24, r18
 186:	93 07       	cpc	r25, r19
 188:	31 f0       	breq	.+12     	; 0x196 <LBB10_2>
 18a:	ae 2d       	mov	r26, r14
 18c:	bf 2d       	mov	r27, r15
 18e:	8d 91       	ld	r24, X+
 190:	9c 91       	ld	r25, X
 192:	0e 94 5a 01 	call	0x2b4	; 0x2b4 <__rust_dealloc>

00000196 <LBB10_2>:
 196:	be 01       	movw	r22, r28
 198:	6f 5f       	subi	r22, 0xFF	; 255
 19a:	7f 4f       	sbci	r23, 0xFF	; 255
 19c:	46 e0       	ldi	r20, 0x06	; 6
 19e:	50 e0       	ldi	r21, 0x00	; 0
 1a0:	0e 2d       	mov	r16, r14
 1a2:	1f 2d       	mov	r17, r15
 1a4:	80 2f       	mov	r24, r16
 1a6:	91 2f       	mov	r25, r17
 1a8:	0e 94 c1 05 	call	0xb82	; 0xb82 <memcpy>
 1ac:	80 2f       	mov	r24, r16
 1ae:	91 2f       	mov	r25, r17
 1b0:	26 96       	adiw	r28, 0x06	; 6
 1b2:	0f b6       	in	r0, 0x3f	; 63
 1b4:	f8 94       	cli
 1b6:	de bf       	out	0x3e, r29	; 62
 1b8:	0f be       	out	0x3f, r0	; 63
 1ba:	cd bf       	out	0x3d, r28	; 61
 1bc:	1f 91       	pop	r17
 1be:	0f 91       	pop	r16
 1c0:	ff 90       	pop	r15
 1c2:	ef 90       	pop	r14
 1c4:	df 91       	pop	r29
 1c6:	cf 91       	pop	r28
 1c8:	08 95       	ret

000001ca <_ZN11freertos_rs4task4Task3new17hd0fbd62139516ec2E>:
 1ca:	0f 93       	push	r16
 1cc:	1f 93       	push	r17
 1ce:	08 2f       	mov	r16, r24
 1d0:	19 2f       	mov	r17, r25
 1d2:	69 e4       	ldi	r22, 0x49	; 73
 1d4:	71 e0       	ldi	r23, 0x01	; 1
 1d6:	49 e0       	ldi	r20, 0x09	; 9
 1d8:	50 e0       	ldi	r21, 0x00	; 0
 1da:	0e 94 08 01 	call	0x210	; 0x210 <_ZN5alloc5slice64_$LT$impl$u20$alloc..borrow..ToOwned$u20$for$u20$$u5b$T$u5d$$GT$8to_owned17ha9aac9b3d541748eE>
 1de:	81 e0       	ldi	r24, 0x01	; 1
 1e0:	e0 2f       	mov	r30, r16
 1e2:	f1 2f       	mov	r31, r17
 1e4:	80 87       	std	Z+8, r24	; 0x08
 1e6:	80 e0       	ldi	r24, 0x00	; 0
 1e8:	94 e0       	ldi	r25, 0x04	; 4
 1ea:	86 83       	std	Z+6, r24	; 0x06
 1ec:	97 83       	std	Z+7, r25	; 0x07
 1ee:	1f 91       	pop	r17
 1f0:	0f 91       	pop	r16
 1f2:	08 95       	ret

000001f4 <_ZN5alloc7raw_vec17capacity_overflow17h7baceaa6cb233d6cE>:
 1f4:	88 e1       	ldi	r24, 0x18	; 24
 1f6:	91 e0       	ldi	r25, 0x01	; 1
 1f8:	0e 94 53 01 	call	0x2a6	; 0x2a6 <_ZN4core9panicking5panic17hfe0b70798e3f0071E>
 1fc:	0e 94 bb 05 	call	0xb76	; 0xb76 <abort>

00000200 <_ZN5alloc5alloc18handle_alloc_error17h35c9228e318decccE>:
 200:	0e 94 60 00 	call	0xc0	; 0xc0 <rust_oom>
 204:	0e 94 bb 05 	call	0xb76	; 0xb76 <abort>

00000208 <_ZN5alloc7raw_vec19RawVec$LT$T$C$A$GT$11allocate_in28_$u7b$$u7b$closure$u7d$$u7d$17hd2c6cb0e75f9d44aE>:
 208:	0e 94 fa 00 	call	0x1f4	; 0x1f4 <_ZN5alloc7raw_vec17capacity_overflow17h7baceaa6cb233d6cE>
 20c:	0e 94 bb 05 	call	0xb76	; 0xb76 <abort>

00000210 <_ZN5alloc5slice64_$LT$impl$u20$alloc..borrow..ToOwned$u20$for$u20$$u5b$T$u5d$$GT$8to_owned17ha9aac9b3d541748eE>:
 210:	af 92       	push	r10
 212:	bf 92       	push	r11
 214:	cf 92       	push	r12
 216:	df 92       	push	r13
 218:	ef 92       	push	r14
 21a:	ff 92       	push	r15
 21c:	0f 93       	push	r16
 21e:	1f 93       	push	r17
 220:	04 2f       	mov	r16, r20
 222:	15 2f       	mov	r17, r21
 224:	e6 2e       	mov	r14, r22
 226:	f7 2e       	mov	r15, r23
 228:	21 2f       	mov	r18, r17
 22a:	22 23       	and	r18, r18
 22c:	0a f4       	brpl	.+2      	; 0x230 <LBB15_1>
 22e:	33 c0       	rjmp	.+102    	; 0x296 <LBB15_6>

00000230 <LBB15_1>:
 230:	c8 2e       	mov	r12, r24
 232:	d9 2e       	mov	r13, r25
 234:	80 e0       	ldi	r24, 0x00	; 0
 236:	90 e0       	ldi	r25, 0x00	; 0
 238:	08 17       	cp	r16, r24
 23a:	19 07       	cpc	r17, r25
 23c:	69 f0       	breq	.+26     	; 0x258 <LBB15_4>
 23e:	a8 2e       	mov	r10, r24
 240:	b9 2e       	mov	r11, r25
 242:	80 2f       	mov	r24, r16
 244:	91 2f       	mov	r25, r17
 246:	0e 94 57 01 	call	0x2ae	; 0x2ae <__rust_alloc>
 24a:	8a 15       	cp	r24, r10
 24c:	9b 05       	cpc	r25, r11
 24e:	31 f4       	brne	.+12     	; 0x25c <LBB15_5>
 250:	0e 94 00 01 	call	0x200	; 0x200 <_ZN5alloc5alloc18handle_alloc_error17h35c9228e318decccE>
 254:	0e 94 bb 05 	call	0xb76	; 0xb76 <abort>

00000258 <LBB15_4>:
 258:	81 e0       	ldi	r24, 0x01	; 1
 25a:	90 e0       	ldi	r25, 0x00	; 0

0000025c <LBB15_5>:
 25c:	a8 2e       	mov	r10, r24
 25e:	b9 2e       	mov	r11, r25
 260:	6e 2d       	mov	r22, r14
 262:	7f 2d       	mov	r23, r15
 264:	40 2f       	mov	r20, r16
 266:	51 2f       	mov	r21, r17
 268:	0e 94 c1 05 	call	0xb82	; 0xb82 <memcpy>
 26c:	ac 2d       	mov	r26, r12
 26e:	bd 2d       	mov	r27, r13
 270:	ea 2f       	mov	r30, r26
 272:	fb 2f       	mov	r31, r27
 274:	04 83       	std	Z+4, r16	; 0x04
 276:	15 83       	std	Z+5, r17	; 0x05
 278:	ad 92       	st	X+, r10
 27a:	bd 92       	st	X+, r11
 27c:	ea 2f       	mov	r30, r26
 27e:	fb 2f       	mov	r31, r27
 280:	00 83       	st	Z, r16
 282:	11 83       	std	Z+1, r17	; 0x01
 284:	1f 91       	pop	r17
 286:	0f 91       	pop	r16
 288:	ff 90       	pop	r15
 28a:	ef 90       	pop	r14
 28c:	df 90       	pop	r13
 28e:	cf 90       	pop	r12
 290:	bf 90       	pop	r11
 292:	af 90       	pop	r10
 294:	08 95       	ret

00000296 <LBB15_6>:
 296:	0e 94 04 01 	call	0x208	; 0x208 <_ZN5alloc7raw_vec19RawVec$LT$T$C$A$GT$11allocate_in28_$u7b$$u7b$closure$u7d$$u7d$17hd2c6cb0e75f9d44aE>
 29a:	0e 94 bb 05 	call	0xb76	; 0xb76 <abort>

0000029e <_ZN4core9panicking9panic_fmt17h66cace3606d5a84cE>:
 29e:	0e 94 bb 05 	call	0xb76	; 0xb76 <abort>
 2a2:	0e 94 bb 05 	call	0xb76	; 0xb76 <abort>

000002a6 <_ZN4core9panicking5panic17hfe0b70798e3f0071E>:
 2a6:	0e 94 4f 01 	call	0x29e	; 0x29e <_ZN4core9panicking9panic_fmt17h66cace3606d5a84cE>
 2aa:	0e 94 bb 05 	call	0xb76	; 0xb76 <abort>

000002ae <__rust_alloc>:
 2ae:	0e 94 98 00 	call	0x130	; 0x130 <__rg_alloc>
 2b2:	08 95       	ret

000002b4 <__rust_dealloc>:
 2b4:	0e 94 9f 00 	call	0x13e	; 0x13e <__rg_dealloc>
 2b8:	08 95       	ret

000002ba <__ctors_end>:
 2ba:	11 24       	eor	r1, r1
 2bc:	1f be       	out	0x3f, r1	; 63
 2be:	cf ef       	ldi	r28, 0xFF	; 255
 2c0:	d4 e0       	ldi	r29, 0x04	; 4
 2c2:	de bf       	out	0x3e, r29	; 62
 2c4:	cd bf       	out	0x3d, r28	; 61

000002c6 <__do_copy_data>:
 2c6:	11 e0       	ldi	r17, 0x01	; 1
 2c8:	a0 e0       	ldi	r26, 0x00	; 0
 2ca:	b1 e0       	ldi	r27, 0x01	; 1
 2cc:	e8 e9       	ldi	r30, 0x98	; 152
 2ce:	fb e0       	ldi	r31, 0x0B	; 11
 2d0:	02 c0       	rjmp	.+4      	; 0x2d6 <__do_copy_data+0x10>
 2d2:	05 90       	lpm	r0, Z+
 2d4:	0d 92       	st	X+, r0
 2d6:	aa 3a       	cpi	r26, 0xAA	; 170
 2d8:	b1 07       	cpc	r27, r17
 2da:	d9 f7       	brne	.-10     	; 0x2d2 <__do_copy_data+0xc>

000002dc <__do_clear_bss>:
 2dc:	24 e0       	ldi	r18, 0x04	; 4
 2de:	aa ea       	ldi	r26, 0xAA	; 170
 2e0:	b1 e0       	ldi	r27, 0x01	; 1
 2e2:	01 c0       	rjmp	.+2      	; 0x2e6 <.do_clear_bss_start>

000002e4 <.do_clear_bss_loop>:
 2e4:	1d 92       	st	X+, r1

000002e6 <.do_clear_bss_start>:
 2e6:	ac 30       	cpi	r26, 0x0C	; 12
 2e8:	b2 07       	cpc	r27, r18
 2ea:	e1 f7       	brne	.-8      	; 0x2e4 <.do_clear_bss_loop>
 2ec:	ef de       	rcall	.-546    	; 0xcc <main>
 2ee:	47 c4       	rjmp	.+2190   	; 0xb7e <exit>

000002f0 <__bad_interrupt>:
 2f0:	87 ce       	rjmp	.-754    	; 0x0 <__vectors>

000002f2 <freertos_rs_vTaskStartScheduler>:
 2f2:	31 c1       	rjmp	.+610    	; 0x556 <vTaskStartScheduler>

000002f4 <prvResetNextTaskUnblockTime>:
 2f4:	e0 91 ce 01 	lds	r30, 0x01CE	; 0x8001ce <pxDelayedTaskList>
 2f8:	f0 91 cf 01 	lds	r31, 0x01CF	; 0x8001cf <pxDelayedTaskList+0x1>
 2fc:	80 81       	ld	r24, Z
 2fe:	81 11       	cpse	r24, r1
 300:	07 c0       	rjmp	.+14     	; 0x310 <prvResetNextTaskUnblockTime+0x1c>
 302:	8f ef       	ldi	r24, 0xFF	; 255
 304:	9f ef       	ldi	r25, 0xFF	; 255
 306:	90 93 ae 01 	sts	0x01AE, r25	; 0x8001ae <xNextTaskUnblockTime+0x1>
 30a:	80 93 ad 01 	sts	0x01AD, r24	; 0x8001ad <xNextTaskUnblockTime>
 30e:	08 95       	ret
 310:	e0 91 ce 01 	lds	r30, 0x01CE	; 0x8001ce <pxDelayedTaskList>
 314:	f0 91 cf 01 	lds	r31, 0x01CF	; 0x8001cf <pxDelayedTaskList+0x1>
 318:	05 80       	ldd	r0, Z+5	; 0x05
 31a:	f6 81       	ldd	r31, Z+6	; 0x06
 31c:	e0 2d       	mov	r30, r0
 31e:	06 80       	ldd	r0, Z+6	; 0x06
 320:	f7 81       	ldd	r31, Z+7	; 0x07
 322:	e0 2d       	mov	r30, r0
 324:	82 81       	ldd	r24, Z+2	; 0x02
 326:	93 81       	ldd	r25, Z+3	; 0x03
 328:	ee cf       	rjmp	.-36     	; 0x306 <prvResetNextTaskUnblockTime+0x12>

0000032a <prvIdleTask>:
 32a:	80 91 b9 01 	lds	r24, 0x01B9	; 0x8001b9 <uxDeletedTasksWaitingCleanUp>
 32e:	81 11       	cpse	r24, r1
 330:	06 c0       	rjmp	.+12     	; 0x33e <prvIdleTask+0x14>
 332:	80 91 e2 01 	lds	r24, 0x01E2	; 0x8001e2 <pxReadyTasksLists>
 336:	82 30       	cpi	r24, 0x02	; 2
 338:	c0 f3       	brcs	.-16     	; 0x32a <prvIdleTask>
 33a:	c5 d3       	rcall	.+1930   	; 0xac6 <vPortYield>
 33c:	f6 cf       	rjmp	.-20     	; 0x32a <prvIdleTask>
 33e:	0f b6       	in	r0, 0x3f	; 63
 340:	f8 94       	cli
 342:	0f 92       	push	r0
 344:	e0 91 bf 01 	lds	r30, 0x01BF	; 0x8001bf <xTasksWaitingTermination+0x5>
 348:	f0 91 c0 01 	lds	r31, 0x01C0	; 0x8001c0 <xTasksWaitingTermination+0x6>
 34c:	c6 81       	ldd	r28, Z+6	; 0x06
 34e:	d7 81       	ldd	r29, Z+7	; 0x07
 350:	ce 01       	movw	r24, r28
 352:	02 96       	adiw	r24, 0x02	; 2
 354:	b8 d2       	rcall	.+1392   	; 0x8c6 <uxListRemove>
 356:	80 91 b8 01 	lds	r24, 0x01B8	; 0x8001b8 <uxCurrentNumberOfTasks>
 35a:	81 50       	subi	r24, 0x01	; 1
 35c:	80 93 b8 01 	sts	0x01B8, r24	; 0x8001b8 <uxCurrentNumberOfTasks>
 360:	80 91 b9 01 	lds	r24, 0x01B9	; 0x8001b9 <uxDeletedTasksWaitingCleanUp>
 364:	81 50       	subi	r24, 0x01	; 1
 366:	80 93 b9 01 	sts	0x01B9, r24	; 0x8001b9 <uxDeletedTasksWaitingCleanUp>
 36a:	0f 90       	pop	r0
 36c:	0f be       	out	0x3f, r0	; 63
 36e:	8f 89       	ldd	r24, Y+23	; 0x17
 370:	98 8d       	ldd	r25, Y+24	; 0x18
 372:	00 d3       	rcall	.+1536   	; 0x974 <vPortFree>
 374:	ce 01       	movw	r24, r28
 376:	fe d2       	rcall	.+1532   	; 0x974 <vPortFree>
 378:	d8 cf       	rjmp	.-80     	; 0x32a <prvIdleTask>

0000037a <xTaskCreate>:
 37a:	5f 92       	push	r5
 37c:	6f 92       	push	r6
 37e:	7f 92       	push	r7
 380:	8f 92       	push	r8
 382:	9f 92       	push	r9
 384:	af 92       	push	r10
 386:	bf 92       	push	r11
 388:	cf 92       	push	r12
 38a:	df 92       	push	r13
 38c:	ef 92       	push	r14
 38e:	ff 92       	push	r15
 390:	0f 93       	push	r16
 392:	1f 93       	push	r17
 394:	cf 93       	push	r28
 396:	df 93       	push	r29
 398:	78 2e       	mov	r7, r24
 39a:	19 2f       	mov	r17, r25
 39c:	6b 01       	movw	r12, r22
 39e:	5a 01       	movw	r10, r20
 3a0:	62 2e       	mov	r6, r18
 3a2:	53 2e       	mov	r5, r19
 3a4:	47 01       	movw	r8, r14
 3a6:	ca 01       	movw	r24, r20
 3a8:	b2 d2       	rcall	.+1380   	; 0x90e <pvPortMalloc>
 3aa:	7c 01       	movw	r14, r24
 3ac:	89 2b       	or	r24, r25
 3ae:	79 f0       	breq	.+30     	; 0x3ce <xTaskCreate+0x54>
 3b0:	86 e2       	ldi	r24, 0x26	; 38
 3b2:	90 e0       	ldi	r25, 0x00	; 0
 3b4:	ac d2       	rcall	.+1368   	; 0x90e <pvPortMalloc>
 3b6:	ec 01       	movw	r28, r24
 3b8:	00 97       	sbiw	r24, 0x00	; 0
 3ba:	39 f0       	breq	.+14     	; 0x3ca <xTaskCreate+0x50>
 3bc:	f8 8e       	std	Y+24, r15	; 0x18
 3be:	ef 8a       	std	Y+23, r14	; 0x17
 3c0:	c1 14       	cp	r12, r1
 3c2:	d1 04       	cpc	r13, r1
 3c4:	a9 f4       	brne	.+42     	; 0x3f0 <xTaskCreate+0x76>
 3c6:	19 8e       	std	Y+25, r1	; 0x19
 3c8:	28 c0       	rjmp	.+80     	; 0x41a <__FUSE_REGION_LENGTH__+0x1a>
 3ca:	c7 01       	movw	r24, r14
 3cc:	d3 d2       	rcall	.+1446   	; 0x974 <vPortFree>
 3ce:	8f ef       	ldi	r24, 0xFF	; 255
 3d0:	df 91       	pop	r29
 3d2:	cf 91       	pop	r28
 3d4:	1f 91       	pop	r17
 3d6:	0f 91       	pop	r16
 3d8:	ff 90       	pop	r15
 3da:	ef 90       	pop	r14
 3dc:	df 90       	pop	r13
 3de:	cf 90       	pop	r12
 3e0:	bf 90       	pop	r11
 3e2:	af 90       	pop	r10
 3e4:	9f 90       	pop	r9
 3e6:	8f 90       	pop	r8
 3e8:	7f 90       	pop	r7
 3ea:	6f 90       	pop	r6
 3ec:	5f 90       	pop	r5
 3ee:	08 95       	ret
 3f0:	f6 01       	movw	r30, r12
 3f2:	ac 01       	movw	r20, r24
 3f4:	47 5e       	subi	r20, 0xE7	; 231
 3f6:	5f 4f       	sbci	r21, 0xFF	; 255
 3f8:	c6 01       	movw	r24, r12
 3fa:	08 96       	adiw	r24, 0x08	; 8
 3fc:	21 91       	ld	r18, Z+
 3fe:	da 01       	movw	r26, r20
 400:	2d 93       	st	X+, r18
 402:	ad 01       	movw	r20, r26
 404:	9f 01       	movw	r18, r30
 406:	21 50       	subi	r18, 0x01	; 1
 408:	31 09       	sbc	r19, r1
 40a:	d9 01       	movw	r26, r18
 40c:	2c 91       	ld	r18, X
 40e:	22 23       	and	r18, r18
 410:	19 f0       	breq	.+6      	; 0x418 <__FUSE_REGION_LENGTH__+0x18>
 412:	8e 17       	cp	r24, r30
 414:	9f 07       	cpc	r25, r31
 416:	91 f7       	brne	.-28     	; 0x3fc <xTaskCreate+0x82>
 418:	18 a2       	std	Y+32, r1	; 0x20
 41a:	04 30       	cpi	r16, 0x04	; 4
 41c:	08 f0       	brcs	.+2      	; 0x420 <__FUSE_REGION_LENGTH__+0x20>
 41e:	03 e0       	ldi	r16, 0x03	; 3
 420:	0e 8b       	std	Y+22, r16	; 0x16
 422:	6e 01       	movw	r12, r28
 424:	b2 e0       	ldi	r27, 0x02	; 2
 426:	cb 0e       	add	r12, r27
 428:	d1 1c       	adc	r13, r1
 42a:	c6 01       	movw	r24, r12
 42c:	28 d2       	rcall	.+1104   	; 0x87e <vListInitialiseItem>
 42e:	ce 01       	movw	r24, r28
 430:	0c 96       	adiw	r24, 0x0c	; 12
 432:	25 d2       	rcall	.+1098   	; 0x87e <vListInitialiseItem>
 434:	d9 87       	std	Y+9, r29	; 0x09
 436:	c8 87       	std	Y+8, r28	; 0x08
 438:	84 e0       	ldi	r24, 0x04	; 4
 43a:	90 e0       	ldi	r25, 0x00	; 0
 43c:	80 1b       	sub	r24, r16
 43e:	91 09       	sbc	r25, r1
 440:	9d 87       	std	Y+13, r25	; 0x0d
 442:	8c 87       	std	Y+12, r24	; 0x0c
 444:	db 8b       	std	Y+19, r29	; 0x13
 446:	ca 8b       	std	Y+18, r28	; 0x12
 448:	19 a2       	std	Y+33, r1	; 0x21
 44a:	1a a2       	std	Y+34, r1	; 0x22
 44c:	1b a2       	std	Y+35, r1	; 0x23
 44e:	1c a2       	std	Y+36, r1	; 0x24
 450:	1d a2       	std	Y+37, r1	; 0x25
 452:	c5 01       	movw	r24, r10
 454:	01 97       	sbiw	r24, 0x01	; 1
 456:	46 2d       	mov	r20, r6
 458:	55 2d       	mov	r21, r5
 45a:	67 2d       	mov	r22, r7
 45c:	71 2f       	mov	r23, r17
 45e:	8e 0d       	add	r24, r14
 460:	9f 1d       	adc	r25, r15
 462:	89 d2       	rcall	.+1298   	; 0x976 <pxPortInitialiseStack>
 464:	99 83       	std	Y+1, r25	; 0x01
 466:	88 83       	st	Y, r24
 468:	81 14       	cp	r8, r1
 46a:	91 04       	cpc	r9, r1
 46c:	19 f0       	breq	.+6      	; 0x474 <__FUSE_REGION_LENGTH__+0x74>
 46e:	f4 01       	movw	r30, r8
 470:	d1 83       	std	Z+1, r29	; 0x01
 472:	c0 83       	st	Z, r28
 474:	0f b6       	in	r0, 0x3f	; 63
 476:	f8 94       	cli
 478:	0f 92       	push	r0
 47a:	80 91 b8 01 	lds	r24, 0x01B8	; 0x8001b8 <uxCurrentNumberOfTasks>
 47e:	8f 5f       	subi	r24, 0xFF	; 255
 480:	80 93 b8 01 	sts	0x01B8, r24	; 0x8001b8 <uxCurrentNumberOfTasks>
 484:	80 91 06 02 	lds	r24, 0x0206	; 0x800206 <pxCurrentTCB>
 488:	90 91 07 02 	lds	r25, 0x0207	; 0x800207 <pxCurrentTCB+0x1>
 48c:	89 2b       	or	r24, r25
 48e:	09 f0       	breq	.+2      	; 0x492 <__FUSE_REGION_LENGTH__+0x92>
 490:	51 c0       	rjmp	.+162    	; 0x534 <__stack+0x35>
 492:	d0 93 07 02 	sts	0x0207, r29	; 0x800207 <pxCurrentTCB+0x1>
 496:	c0 93 06 02 	sts	0x0206, r28	; 0x800206 <pxCurrentTCB>
 49a:	80 91 b8 01 	lds	r24, 0x01B8	; 0x8001b8 <uxCurrentNumberOfTasks>
 49e:	81 30       	cpi	r24, 0x01	; 1
 4a0:	21 f5       	brne	.+72     	; 0x4ea <__FUSE_REGION_LENGTH__+0xea>
 4a2:	82 ee       	ldi	r24, 0xE2	; 226
 4a4:	91 e0       	ldi	r25, 0x01	; 1
 4a6:	dd d1       	rcall	.+954    	; 0x862 <vListInitialise>
 4a8:	8b ee       	ldi	r24, 0xEB	; 235
 4aa:	91 e0       	ldi	r25, 0x01	; 1
 4ac:	da d1       	rcall	.+948    	; 0x862 <vListInitialise>
 4ae:	84 ef       	ldi	r24, 0xF4	; 244
 4b0:	91 e0       	ldi	r25, 0x01	; 1
 4b2:	d7 d1       	rcall	.+942    	; 0x862 <vListInitialise>
 4b4:	8d ef       	ldi	r24, 0xFD	; 253
 4b6:	91 e0       	ldi	r25, 0x01	; 1
 4b8:	d4 d1       	rcall	.+936    	; 0x862 <vListInitialise>
 4ba:	89 ed       	ldi	r24, 0xD9	; 217
 4bc:	91 e0       	ldi	r25, 0x01	; 1
 4be:	d1 d1       	rcall	.+930    	; 0x862 <vListInitialise>
 4c0:	80 ed       	ldi	r24, 0xD0	; 208
 4c2:	91 e0       	ldi	r25, 0x01	; 1
 4c4:	ce d1       	rcall	.+924    	; 0x862 <vListInitialise>
 4c6:	83 ec       	ldi	r24, 0xC3	; 195
 4c8:	91 e0       	ldi	r25, 0x01	; 1
 4ca:	cb d1       	rcall	.+918    	; 0x862 <vListInitialise>
 4cc:	8a eb       	ldi	r24, 0xBA	; 186
 4ce:	91 e0       	ldi	r25, 0x01	; 1
 4d0:	c8 d1       	rcall	.+912    	; 0x862 <vListInitialise>
 4d2:	89 ed       	ldi	r24, 0xD9	; 217
 4d4:	91 e0       	ldi	r25, 0x01	; 1
 4d6:	90 93 cf 01 	sts	0x01CF, r25	; 0x8001cf <pxDelayedTaskList+0x1>
 4da:	80 93 ce 01 	sts	0x01CE, r24	; 0x8001ce <pxDelayedTaskList>
 4de:	80 ed       	ldi	r24, 0xD0	; 208
 4e0:	91 e0       	ldi	r25, 0x01	; 1
 4e2:	90 93 cd 01 	sts	0x01CD, r25	; 0x8001cd <pxOverflowDelayedTaskList+0x1>
 4e6:	80 93 cc 01 	sts	0x01CC, r24	; 0x8001cc <pxOverflowDelayedTaskList>
 4ea:	80 91 af 01 	lds	r24, 0x01AF	; 0x8001af <uxTaskNumber>
 4ee:	8f 5f       	subi	r24, 0xFF	; 255
 4f0:	80 93 af 01 	sts	0x01AF, r24	; 0x8001af <uxTaskNumber>
 4f4:	8e 89       	ldd	r24, Y+22	; 0x16
 4f6:	90 91 b5 01 	lds	r25, 0x01B5	; 0x8001b5 <uxTopReadyPriority>
 4fa:	98 17       	cp	r25, r24
 4fc:	10 f4       	brcc	.+4      	; 0x502 <__stack+0x3>
 4fe:	80 93 b5 01 	sts	0x01B5, r24	; 0x8001b5 <uxTopReadyPriority>
 502:	f9 e0       	ldi	r31, 0x09	; 9
 504:	8f 9f       	mul	r24, r31
 506:	c0 01       	movw	r24, r0
 508:	11 24       	eor	r1, r1
 50a:	b6 01       	movw	r22, r12
 50c:	8e 51       	subi	r24, 0x1E	; 30
 50e:	9e 4f       	sbci	r25, 0xFE	; 254
 510:	ba d1       	rcall	.+884    	; 0x886 <vListInsertEnd>
 512:	0f 90       	pop	r0
 514:	0f be       	out	0x3f, r0	; 63
 516:	80 91 b4 01 	lds	r24, 0x01B4	; 0x8001b4 <xSchedulerRunning>
 51a:	88 23       	and	r24, r24
 51c:	49 f0       	breq	.+18     	; 0x530 <__stack+0x31>
 51e:	e0 91 06 02 	lds	r30, 0x0206	; 0x800206 <pxCurrentTCB>
 522:	f0 91 07 02 	lds	r31, 0x0207	; 0x800207 <pxCurrentTCB+0x1>
 526:	96 89       	ldd	r25, Z+22	; 0x16
 528:	8e 89       	ldd	r24, Y+22	; 0x16
 52a:	98 17       	cp	r25, r24
 52c:	08 f4       	brcc	.+2      	; 0x530 <__stack+0x31>
 52e:	cb d2       	rcall	.+1430   	; 0xac6 <vPortYield>
 530:	81 e0       	ldi	r24, 0x01	; 1
 532:	4e cf       	rjmp	.-356    	; 0x3d0 <xTaskCreate+0x56>
 534:	80 91 b4 01 	lds	r24, 0x01B4	; 0x8001b4 <xSchedulerRunning>
 538:	81 11       	cpse	r24, r1
 53a:	d7 cf       	rjmp	.-82     	; 0x4ea <__FUSE_REGION_LENGTH__+0xea>
 53c:	e0 91 06 02 	lds	r30, 0x0206	; 0x800206 <pxCurrentTCB>
 540:	f0 91 07 02 	lds	r31, 0x0207	; 0x800207 <pxCurrentTCB+0x1>
 544:	96 89       	ldd	r25, Z+22	; 0x16
 546:	8e 89       	ldd	r24, Y+22	; 0x16
 548:	89 17       	cp	r24, r25
 54a:	78 f2       	brcs	.-98     	; 0x4ea <__FUSE_REGION_LENGTH__+0xea>
 54c:	d0 93 07 02 	sts	0x0207, r29	; 0x800207 <pxCurrentTCB+0x1>
 550:	c0 93 06 02 	sts	0x0206, r28	; 0x800206 <pxCurrentTCB>
 554:	ca cf       	rjmp	.-108    	; 0x4ea <__FUSE_REGION_LENGTH__+0xea>

00000556 <vTaskStartScheduler>:
 556:	ef 92       	push	r14
 558:	ff 92       	push	r15
 55a:	0f 93       	push	r16
 55c:	8b ea       	ldi	r24, 0xAB	; 171
 55e:	e8 2e       	mov	r14, r24
 560:	81 e0       	ldi	r24, 0x01	; 1
 562:	f8 2e       	mov	r15, r24
 564:	00 e0       	ldi	r16, 0x00	; 0
 566:	30 e0       	ldi	r19, 0x00	; 0
 568:	20 e0       	ldi	r18, 0x00	; 0
 56a:	40 e2       	ldi	r20, 0x20	; 32
 56c:	50 e0       	ldi	r21, 0x00	; 0
 56e:	65 ea       	ldi	r22, 0xA5	; 165
 570:	71 e0       	ldi	r23, 0x01	; 1
 572:	85 e9       	ldi	r24, 0x95	; 149
 574:	91 e0       	ldi	r25, 0x01	; 1
 576:	01 df       	rcall	.-510    	; 0x37a <xTaskCreate>
 578:	81 30       	cpi	r24, 0x01	; 1
 57a:	89 f4       	brne	.+34     	; 0x59e <vTaskStartScheduler+0x48>
 57c:	f8 94       	cli
 57e:	2f ef       	ldi	r18, 0xFF	; 255
 580:	3f ef       	ldi	r19, 0xFF	; 255
 582:	30 93 ae 01 	sts	0x01AE, r19	; 0x8001ae <xNextTaskUnblockTime+0x1>
 586:	20 93 ad 01 	sts	0x01AD, r18	; 0x8001ad <xNextTaskUnblockTime>
 58a:	80 93 b4 01 	sts	0x01B4, r24	; 0x8001b4 <xSchedulerRunning>
 58e:	10 92 b7 01 	sts	0x01B7, r1	; 0x8001b7 <xTickCount+0x1>
 592:	10 92 b6 01 	sts	0x01B6, r1	; 0x8001b6 <xTickCount>
 596:	0f 91       	pop	r16
 598:	ff 90       	pop	r15
 59a:	ef 90       	pop	r14
 59c:	5a c2       	rjmp	.+1204   	; 0xa52 <xPortStartScheduler>
 59e:	0f 91       	pop	r16
 5a0:	ff 90       	pop	r15
 5a2:	ef 90       	pop	r14
 5a4:	08 95       	ret

000005a6 <vTaskSuspendAll>:
 5a6:	80 91 aa 01 	lds	r24, 0x01AA	; 0x8001aa <uxSchedulerSuspended>
 5aa:	8f 5f       	subi	r24, 0xFF	; 255
 5ac:	80 93 aa 01 	sts	0x01AA, r24	; 0x8001aa <uxSchedulerSuspended>
 5b0:	08 95       	ret

000005b2 <xTaskIncrementTick>:
 5b2:	cf 92       	push	r12
 5b4:	df 92       	push	r13
 5b6:	ef 92       	push	r14
 5b8:	ff 92       	push	r15
 5ba:	0f 93       	push	r16
 5bc:	1f 93       	push	r17
 5be:	cf 93       	push	r28
 5c0:	df 93       	push	r29
 5c2:	80 91 aa 01 	lds	r24, 0x01AA	; 0x8001aa <uxSchedulerSuspended>
 5c6:	81 11       	cpse	r24, r1
 5c8:	92 c0       	rjmp	.+292    	; 0x6ee <xTaskIncrementTick+0x13c>
 5ca:	00 91 b6 01 	lds	r16, 0x01B6	; 0x8001b6 <xTickCount>
 5ce:	10 91 b7 01 	lds	r17, 0x01B7	; 0x8001b7 <xTickCount+0x1>
 5d2:	0f 5f       	subi	r16, 0xFF	; 255
 5d4:	1f 4f       	sbci	r17, 0xFF	; 255
 5d6:	10 93 b7 01 	sts	0x01B7, r17	; 0x8001b7 <xTickCount+0x1>
 5da:	00 93 b6 01 	sts	0x01B6, r16	; 0x8001b6 <xTickCount>
 5de:	01 15       	cp	r16, r1
 5e0:	11 05       	cpc	r17, r1
 5e2:	b1 f4       	brne	.+44     	; 0x610 <xTaskIncrementTick+0x5e>
 5e4:	80 91 ce 01 	lds	r24, 0x01CE	; 0x8001ce <pxDelayedTaskList>
 5e8:	90 91 cf 01 	lds	r25, 0x01CF	; 0x8001cf <pxDelayedTaskList+0x1>
 5ec:	20 91 cc 01 	lds	r18, 0x01CC	; 0x8001cc <pxOverflowDelayedTaskList>
 5f0:	30 91 cd 01 	lds	r19, 0x01CD	; 0x8001cd <pxOverflowDelayedTaskList+0x1>
 5f4:	30 93 cf 01 	sts	0x01CF, r19	; 0x8001cf <pxDelayedTaskList+0x1>
 5f8:	20 93 ce 01 	sts	0x01CE, r18	; 0x8001ce <pxDelayedTaskList>
 5fc:	90 93 cd 01 	sts	0x01CD, r25	; 0x8001cd <pxOverflowDelayedTaskList+0x1>
 600:	80 93 cc 01 	sts	0x01CC, r24	; 0x8001cc <pxOverflowDelayedTaskList>
 604:	80 91 b0 01 	lds	r24, 0x01B0	; 0x8001b0 <xNumOfOverflows>
 608:	8f 5f       	subi	r24, 0xFF	; 255
 60a:	80 93 b0 01 	sts	0x01B0, r24	; 0x8001b0 <xNumOfOverflows>
 60e:	72 de       	rcall	.-796    	; 0x2f4 <prvResetNextTaskUnblockTime>
 610:	80 91 ad 01 	lds	r24, 0x01AD	; 0x8001ad <xNextTaskUnblockTime>
 614:	90 91 ae 01 	lds	r25, 0x01AE	; 0x8001ae <xNextTaskUnblockTime+0x1>
 618:	c0 e0       	ldi	r28, 0x00	; 0
 61a:	08 17       	cp	r16, r24
 61c:	19 07       	cpc	r17, r25
 61e:	e8 f4       	brcc	.+58     	; 0x65a <xTaskIncrementTick+0xa8>
 620:	e0 91 06 02 	lds	r30, 0x0206	; 0x800206 <pxCurrentTCB>
 624:	f0 91 07 02 	lds	r31, 0x0207	; 0x800207 <pxCurrentTCB+0x1>
 628:	e6 89       	ldd	r30, Z+22	; 0x16
 62a:	b9 e0       	ldi	r27, 0x09	; 9
 62c:	eb 9f       	mul	r30, r27
 62e:	f0 01       	movw	r30, r0
 630:	11 24       	eor	r1, r1
 632:	ee 51       	subi	r30, 0x1E	; 30
 634:	fe 4f       	sbci	r31, 0xFE	; 254
 636:	80 81       	ld	r24, Z
 638:	82 30       	cpi	r24, 0x02	; 2
 63a:	08 f0       	brcs	.+2      	; 0x63e <xTaskIncrementTick+0x8c>
 63c:	c1 e0       	ldi	r28, 0x01	; 1
 63e:	80 91 b1 01 	lds	r24, 0x01B1	; 0x8001b1 <xYieldPending>
 642:	81 11       	cpse	r24, r1
 644:	c1 e0       	ldi	r28, 0x01	; 1
 646:	8c 2f       	mov	r24, r28
 648:	df 91       	pop	r29
 64a:	cf 91       	pop	r28
 64c:	1f 91       	pop	r17
 64e:	0f 91       	pop	r16
 650:	ff 90       	pop	r15
 652:	ef 90       	pop	r14
 654:	df 90       	pop	r13
 656:	cf 90       	pop	r12
 658:	08 95       	ret
 65a:	d9 e0       	ldi	r29, 0x09	; 9
 65c:	e0 91 ce 01 	lds	r30, 0x01CE	; 0x8001ce <pxDelayedTaskList>
 660:	f0 91 cf 01 	lds	r31, 0x01CF	; 0x8001cf <pxDelayedTaskList+0x1>
 664:	80 81       	ld	r24, Z
 666:	81 11       	cpse	r24, r1
 668:	07 c0       	rjmp	.+14     	; 0x678 <xTaskIncrementTick+0xc6>
 66a:	8f ef       	ldi	r24, 0xFF	; 255
 66c:	9f ef       	ldi	r25, 0xFF	; 255
 66e:	90 93 ae 01 	sts	0x01AE, r25	; 0x8001ae <xNextTaskUnblockTime+0x1>
 672:	80 93 ad 01 	sts	0x01AD, r24	; 0x8001ad <xNextTaskUnblockTime>
 676:	d4 cf       	rjmp	.-88     	; 0x620 <xTaskIncrementTick+0x6e>
 678:	e0 91 ce 01 	lds	r30, 0x01CE	; 0x8001ce <pxDelayedTaskList>
 67c:	f0 91 cf 01 	lds	r31, 0x01CF	; 0x8001cf <pxDelayedTaskList+0x1>
 680:	05 80       	ldd	r0, Z+5	; 0x05
 682:	f6 81       	ldd	r31, Z+6	; 0x06
 684:	e0 2d       	mov	r30, r0
 686:	e6 80       	ldd	r14, Z+6	; 0x06
 688:	f7 80       	ldd	r15, Z+7	; 0x07
 68a:	d7 01       	movw	r26, r14
 68c:	12 96       	adiw	r26, 0x02	; 2
 68e:	8d 91       	ld	r24, X+
 690:	9c 91       	ld	r25, X
 692:	08 17       	cp	r16, r24
 694:	19 07       	cpc	r17, r25
 696:	58 f3       	brcs	.-42     	; 0x66e <xTaskIncrementTick+0xbc>
 698:	67 01       	movw	r12, r14
 69a:	b2 e0       	ldi	r27, 0x02	; 2
 69c:	cb 0e       	add	r12, r27
 69e:	d1 1c       	adc	r13, r1
 6a0:	c6 01       	movw	r24, r12
 6a2:	11 d1       	rcall	.+546    	; 0x8c6 <uxListRemove>
 6a4:	f7 01       	movw	r30, r14
 6a6:	84 89       	ldd	r24, Z+20	; 0x14
 6a8:	95 89       	ldd	r25, Z+21	; 0x15
 6aa:	89 2b       	or	r24, r25
 6ac:	19 f0       	breq	.+6      	; 0x6b4 <xTaskIncrementTick+0x102>
 6ae:	c7 01       	movw	r24, r14
 6b0:	0c 96       	adiw	r24, 0x0c	; 12
 6b2:	09 d1       	rcall	.+530    	; 0x8c6 <uxListRemove>
 6b4:	d7 01       	movw	r26, r14
 6b6:	56 96       	adiw	r26, 0x16	; 22
 6b8:	8c 91       	ld	r24, X
 6ba:	90 91 b5 01 	lds	r25, 0x01B5	; 0x8001b5 <uxTopReadyPriority>
 6be:	98 17       	cp	r25, r24
 6c0:	10 f4       	brcc	.+4      	; 0x6c6 <xTaskIncrementTick+0x114>
 6c2:	80 93 b5 01 	sts	0x01B5, r24	; 0x8001b5 <uxTopReadyPriority>
 6c6:	8d 9f       	mul	r24, r29
 6c8:	c0 01       	movw	r24, r0
 6ca:	11 24       	eor	r1, r1
 6cc:	b6 01       	movw	r22, r12
 6ce:	8e 51       	subi	r24, 0x1E	; 30
 6d0:	9e 4f       	sbci	r25, 0xFE	; 254
 6d2:	d9 d0       	rcall	.+434    	; 0x886 <vListInsertEnd>
 6d4:	e0 91 06 02 	lds	r30, 0x0206	; 0x800206 <pxCurrentTCB>
 6d8:	f0 91 07 02 	lds	r31, 0x0207	; 0x800207 <pxCurrentTCB+0x1>
 6dc:	d7 01       	movw	r26, r14
 6de:	56 96       	adiw	r26, 0x16	; 22
 6e0:	9c 91       	ld	r25, X
 6e2:	86 89       	ldd	r24, Z+22	; 0x16
 6e4:	98 17       	cp	r25, r24
 6e6:	08 f4       	brcc	.+2      	; 0x6ea <xTaskIncrementTick+0x138>
 6e8:	b9 cf       	rjmp	.-142    	; 0x65c <xTaskIncrementTick+0xaa>
 6ea:	c1 e0       	ldi	r28, 0x01	; 1
 6ec:	b7 cf       	rjmp	.-146    	; 0x65c <xTaskIncrementTick+0xaa>
 6ee:	80 91 b2 01 	lds	r24, 0x01B2	; 0x8001b2 <xPendedTicks>
 6f2:	90 91 b3 01 	lds	r25, 0x01B3	; 0x8001b3 <xPendedTicks+0x1>
 6f6:	01 96       	adiw	r24, 0x01	; 1
 6f8:	90 93 b3 01 	sts	0x01B3, r25	; 0x8001b3 <xPendedTicks+0x1>
 6fc:	80 93 b2 01 	sts	0x01B2, r24	; 0x8001b2 <xPendedTicks>
 700:	c0 e0       	ldi	r28, 0x00	; 0
 702:	a1 cf       	rjmp	.-190    	; 0x646 <xTaskIncrementTick+0x94>

00000704 <xTaskResumeAll>:
 704:	ef 92       	push	r14
 706:	ff 92       	push	r15
 708:	0f 93       	push	r16
 70a:	1f 93       	push	r17
 70c:	cf 93       	push	r28
 70e:	df 93       	push	r29
 710:	0f b6       	in	r0, 0x3f	; 63
 712:	f8 94       	cli
 714:	0f 92       	push	r0
 716:	80 91 aa 01 	lds	r24, 0x01AA	; 0x8001aa <uxSchedulerSuspended>
 71a:	81 50       	subi	r24, 0x01	; 1
 71c:	80 93 aa 01 	sts	0x01AA, r24	; 0x8001aa <uxSchedulerSuspended>
 720:	80 91 aa 01 	lds	r24, 0x01AA	; 0x8001aa <uxSchedulerSuspended>
 724:	88 23       	and	r24, r24
 726:	51 f0       	breq	.+20     	; 0x73c <xTaskResumeAll+0x38>
 728:	80 e0       	ldi	r24, 0x00	; 0
 72a:	0f 90       	pop	r0
 72c:	0f be       	out	0x3f, r0	; 63
 72e:	df 91       	pop	r29
 730:	cf 91       	pop	r28
 732:	1f 91       	pop	r17
 734:	0f 91       	pop	r16
 736:	ff 90       	pop	r15
 738:	ef 90       	pop	r14
 73a:	08 95       	ret
 73c:	80 91 b8 01 	lds	r24, 0x01B8	; 0x8001b8 <uxCurrentNumberOfTasks>
 740:	88 23       	and	r24, r24
 742:	91 f3       	breq	.-28     	; 0x728 <xTaskResumeAll+0x24>
 744:	d0 e0       	ldi	r29, 0x00	; 0
 746:	c0 e0       	ldi	r28, 0x00	; 0
 748:	89 e0       	ldi	r24, 0x09	; 9
 74a:	f8 2e       	mov	r15, r24
 74c:	ee 24       	eor	r14, r14
 74e:	e3 94       	inc	r14
 750:	26 c0       	rjmp	.+76     	; 0x79e <xTaskResumeAll+0x9a>
 752:	e0 91 c8 01 	lds	r30, 0x01C8	; 0x8001c8 <xPendingReadyList+0x5>
 756:	f0 91 c9 01 	lds	r31, 0x01C9	; 0x8001c9 <xPendingReadyList+0x6>
 75a:	c6 81       	ldd	r28, Z+6	; 0x06
 75c:	d7 81       	ldd	r29, Z+7	; 0x07
 75e:	ce 01       	movw	r24, r28
 760:	0c 96       	adiw	r24, 0x0c	; 12
 762:	b1 d0       	rcall	.+354    	; 0x8c6 <uxListRemove>
 764:	8e 01       	movw	r16, r28
 766:	0e 5f       	subi	r16, 0xFE	; 254
 768:	1f 4f       	sbci	r17, 0xFF	; 255
 76a:	c8 01       	movw	r24, r16
 76c:	ac d0       	rcall	.+344    	; 0x8c6 <uxListRemove>
 76e:	8e 89       	ldd	r24, Y+22	; 0x16
 770:	90 91 b5 01 	lds	r25, 0x01B5	; 0x8001b5 <uxTopReadyPriority>
 774:	98 17       	cp	r25, r24
 776:	10 f4       	brcc	.+4      	; 0x77c <xTaskResumeAll+0x78>
 778:	80 93 b5 01 	sts	0x01B5, r24	; 0x8001b5 <uxTopReadyPriority>
 77c:	8f 9d       	mul	r24, r15
 77e:	c0 01       	movw	r24, r0
 780:	11 24       	eor	r1, r1
 782:	b8 01       	movw	r22, r16
 784:	8e 51       	subi	r24, 0x1E	; 30
 786:	9e 4f       	sbci	r25, 0xFE	; 254
 788:	7e d0       	rcall	.+252    	; 0x886 <vListInsertEnd>
 78a:	e0 91 06 02 	lds	r30, 0x0206	; 0x800206 <pxCurrentTCB>
 78e:	f0 91 07 02 	lds	r31, 0x0207	; 0x800207 <pxCurrentTCB+0x1>
 792:	9e 89       	ldd	r25, Y+22	; 0x16
 794:	86 89       	ldd	r24, Z+22	; 0x16
 796:	98 17       	cp	r25, r24
 798:	10 f0       	brcs	.+4      	; 0x79e <xTaskResumeAll+0x9a>
 79a:	e0 92 b1 01 	sts	0x01B1, r14	; 0x8001b1 <xYieldPending>
 79e:	80 91 c3 01 	lds	r24, 0x01C3	; 0x8001c3 <xPendingReadyList>
 7a2:	81 11       	cpse	r24, r1
 7a4:	d6 cf       	rjmp	.-84     	; 0x752 <xTaskResumeAll+0x4e>
 7a6:	cd 2b       	or	r28, r29
 7a8:	09 f0       	breq	.+2      	; 0x7ac <xTaskResumeAll+0xa8>
 7aa:	a4 dd       	rcall	.-1208   	; 0x2f4 <prvResetNextTaskUnblockTime>
 7ac:	c0 91 b2 01 	lds	r28, 0x01B2	; 0x8001b2 <xPendedTicks>
 7b0:	d0 91 b3 01 	lds	r29, 0x01B3	; 0x8001b3 <xPendedTicks+0x1>
 7b4:	20 97       	sbiw	r28, 0x00	; 0
 7b6:	59 f0       	breq	.+22     	; 0x7ce <xTaskResumeAll+0xca>
 7b8:	11 e0       	ldi	r17, 0x01	; 1
 7ba:	fb de       	rcall	.-522    	; 0x5b2 <xTaskIncrementTick>
 7bc:	81 11       	cpse	r24, r1
 7be:	10 93 b1 01 	sts	0x01B1, r17	; 0x8001b1 <xYieldPending>
 7c2:	21 97       	sbiw	r28, 0x01	; 1
 7c4:	d1 f7       	brne	.-12     	; 0x7ba <xTaskResumeAll+0xb6>
 7c6:	10 92 b3 01 	sts	0x01B3, r1	; 0x8001b3 <xPendedTicks+0x1>
 7ca:	10 92 b2 01 	sts	0x01B2, r1	; 0x8001b2 <xPendedTicks>
 7ce:	80 91 b1 01 	lds	r24, 0x01B1	; 0x8001b1 <xYieldPending>
 7d2:	88 23       	and	r24, r24
 7d4:	09 f4       	brne	.+2      	; 0x7d8 <xTaskResumeAll+0xd4>
 7d6:	a8 cf       	rjmp	.-176    	; 0x728 <xTaskResumeAll+0x24>
 7d8:	76 d1       	rcall	.+748    	; 0xac6 <vPortYield>
 7da:	81 e0       	ldi	r24, 0x01	; 1
 7dc:	a6 cf       	rjmp	.-180    	; 0x72a <xTaskResumeAll+0x26>

000007de <vTaskSwitchContext>:
 7de:	80 91 aa 01 	lds	r24, 0x01AA	; 0x8001aa <uxSchedulerSuspended>
 7e2:	88 23       	and	r24, r24
 7e4:	21 f0       	breq	.+8      	; 0x7ee <vTaskSwitchContext+0x10>
 7e6:	81 e0       	ldi	r24, 0x01	; 1
 7e8:	80 93 b1 01 	sts	0x01B1, r24	; 0x8001b1 <xYieldPending>
 7ec:	08 95       	ret
 7ee:	10 92 b1 01 	sts	0x01B1, r1	; 0x8001b1 <xYieldPending>
 7f2:	80 91 b5 01 	lds	r24, 0x01B5	; 0x8001b5 <uxTopReadyPriority>
 7f6:	29 e0       	ldi	r18, 0x09	; 9
 7f8:	48 2f       	mov	r20, r24
 7fa:	50 e0       	ldi	r21, 0x00	; 0
 7fc:	28 9f       	mul	r18, r24
 7fe:	f0 01       	movw	r30, r0
 800:	11 24       	eor	r1, r1
 802:	ee 51       	subi	r30, 0x1E	; 30
 804:	fe 4f       	sbci	r31, 0xFE	; 254
 806:	90 81       	ld	r25, Z
 808:	99 23       	and	r25, r25
 80a:	49 f1       	breq	.+82     	; 0x85e <vTaskSwitchContext+0x80>
 80c:	a1 81       	ldd	r26, Z+1	; 0x01
 80e:	b2 81       	ldd	r27, Z+2	; 0x02
 810:	12 96       	adiw	r26, 0x02	; 2
 812:	0d 90       	ld	r0, X+
 814:	bc 91       	ld	r27, X
 816:	a0 2d       	mov	r26, r0
 818:	b2 83       	std	Z+2, r27	; 0x02
 81a:	a1 83       	std	Z+1, r26	; 0x01
 81c:	82 9f       	mul	r24, r18
 81e:	90 01       	movw	r18, r0
 820:	11 24       	eor	r1, r1
 822:	2b 51       	subi	r18, 0x1B	; 27
 824:	3e 4f       	sbci	r19, 0xFE	; 254
 826:	a2 17       	cp	r26, r18
 828:	b3 07       	cpc	r27, r19
 82a:	29 f4       	brne	.+10     	; 0x836 <vTaskSwitchContext+0x58>
 82c:	12 96       	adiw	r26, 0x02	; 2
 82e:	2d 91       	ld	r18, X+
 830:	3c 91       	ld	r19, X
 832:	32 83       	std	Z+2, r19	; 0x02
 834:	21 83       	std	Z+1, r18	; 0x01
 836:	99 e0       	ldi	r25, 0x09	; 9
 838:	94 9f       	mul	r25, r20
 83a:	f0 01       	movw	r30, r0
 83c:	95 9f       	mul	r25, r21
 83e:	f0 0d       	add	r31, r0
 840:	11 24       	eor	r1, r1
 842:	ee 51       	subi	r30, 0x1E	; 30
 844:	fe 4f       	sbci	r31, 0xFE	; 254
 846:	01 80       	ldd	r0, Z+1	; 0x01
 848:	f2 81       	ldd	r31, Z+2	; 0x02
 84a:	e0 2d       	mov	r30, r0
 84c:	26 81       	ldd	r18, Z+6	; 0x06
 84e:	37 81       	ldd	r19, Z+7	; 0x07
 850:	30 93 07 02 	sts	0x0207, r19	; 0x800207 <pxCurrentTCB+0x1>
 854:	20 93 06 02 	sts	0x0206, r18	; 0x800206 <pxCurrentTCB>
 858:	80 93 b5 01 	sts	0x01B5, r24	; 0x8001b5 <uxTopReadyPriority>
 85c:	08 95       	ret
 85e:	81 50       	subi	r24, 0x01	; 1
 860:	cb cf       	rjmp	.-106    	; 0x7f8 <vTaskSwitchContext+0x1a>

00000862 <vListInitialise>:
 862:	fc 01       	movw	r30, r24
 864:	03 96       	adiw	r24, 0x03	; 3
 866:	92 83       	std	Z+2, r25	; 0x02
 868:	81 83       	std	Z+1, r24	; 0x01
 86a:	2f ef       	ldi	r18, 0xFF	; 255
 86c:	3f ef       	ldi	r19, 0xFF	; 255
 86e:	34 83       	std	Z+4, r19	; 0x04
 870:	23 83       	std	Z+3, r18	; 0x03
 872:	96 83       	std	Z+6, r25	; 0x06
 874:	85 83       	std	Z+5, r24	; 0x05
 876:	90 87       	std	Z+8, r25	; 0x08
 878:	87 83       	std	Z+7, r24	; 0x07
 87a:	10 82       	st	Z, r1
 87c:	08 95       	ret

0000087e <vListInitialiseItem>:
 87e:	fc 01       	movw	r30, r24
 880:	11 86       	std	Z+9, r1	; 0x09
 882:	10 86       	std	Z+8, r1	; 0x08
 884:	08 95       	ret

00000886 <vListInsertEnd>:
 886:	cf 93       	push	r28
 888:	df 93       	push	r29
 88a:	9c 01       	movw	r18, r24
 88c:	fb 01       	movw	r30, r22
 88e:	dc 01       	movw	r26, r24
 890:	11 96       	adiw	r26, 0x01	; 1
 892:	cd 91       	ld	r28, X+
 894:	dc 91       	ld	r29, X
 896:	d3 83       	std	Z+3, r29	; 0x03
 898:	c2 83       	std	Z+2, r28	; 0x02
 89a:	8c 81       	ldd	r24, Y+4	; 0x04
 89c:	9d 81       	ldd	r25, Y+5	; 0x05
 89e:	95 83       	std	Z+5, r25	; 0x05
 8a0:	84 83       	std	Z+4, r24	; 0x04
 8a2:	8c 81       	ldd	r24, Y+4	; 0x04
 8a4:	9d 81       	ldd	r25, Y+5	; 0x05
 8a6:	dc 01       	movw	r26, r24
 8a8:	13 96       	adiw	r26, 0x03	; 3
 8aa:	7c 93       	st	X, r23
 8ac:	6e 93       	st	-X, r22
 8ae:	12 97       	sbiw	r26, 0x02	; 2
 8b0:	7d 83       	std	Y+5, r23	; 0x05
 8b2:	6c 83       	std	Y+4, r22	; 0x04
 8b4:	31 87       	std	Z+9, r19	; 0x09
 8b6:	20 87       	std	Z+8, r18	; 0x08
 8b8:	f9 01       	movw	r30, r18
 8ba:	80 81       	ld	r24, Z
 8bc:	8f 5f       	subi	r24, 0xFF	; 255
 8be:	80 83       	st	Z, r24
 8c0:	df 91       	pop	r29
 8c2:	cf 91       	pop	r28
 8c4:	08 95       	ret

000008c6 <uxListRemove>:
 8c6:	cf 93       	push	r28
 8c8:	df 93       	push	r29
 8ca:	fc 01       	movw	r30, r24
 8cc:	a0 85       	ldd	r26, Z+8	; 0x08
 8ce:	b1 85       	ldd	r27, Z+9	; 0x09
 8d0:	82 81       	ldd	r24, Z+2	; 0x02
 8d2:	93 81       	ldd	r25, Z+3	; 0x03
 8d4:	24 81       	ldd	r18, Z+4	; 0x04
 8d6:	35 81       	ldd	r19, Z+5	; 0x05
 8d8:	ec 01       	movw	r28, r24
 8da:	3d 83       	std	Y+5, r19	; 0x05
 8dc:	2c 83       	std	Y+4, r18	; 0x04
 8de:	c4 81       	ldd	r28, Z+4	; 0x04
 8e0:	d5 81       	ldd	r29, Z+5	; 0x05
 8e2:	9b 83       	std	Y+3, r25	; 0x03
 8e4:	8a 83       	std	Y+2, r24	; 0x02
 8e6:	11 96       	adiw	r26, 0x01	; 1
 8e8:	8d 91       	ld	r24, X+
 8ea:	9c 91       	ld	r25, X
 8ec:	12 97       	sbiw	r26, 0x02	; 2
 8ee:	8e 17       	cp	r24, r30
 8f0:	9f 07       	cpc	r25, r31
 8f2:	21 f4       	brne	.+8      	; 0x8fc <uxListRemove+0x36>
 8f4:	12 96       	adiw	r26, 0x02	; 2
 8f6:	dc 93       	st	X, r29
 8f8:	ce 93       	st	-X, r28
 8fa:	11 97       	sbiw	r26, 0x01	; 1
 8fc:	11 86       	std	Z+9, r1	; 0x09
 8fe:	10 86       	std	Z+8, r1	; 0x08
 900:	8c 91       	ld	r24, X
 902:	81 50       	subi	r24, 0x01	; 1
 904:	8c 93       	st	X, r24
 906:	8c 91       	ld	r24, X
 908:	df 91       	pop	r29
 90a:	cf 91       	pop	r28
 90c:	08 95       	ret

0000090e <pvPortMalloc>:
 90e:	0f 93       	push	r16
 910:	1f 93       	push	r17
 912:	cf 93       	push	r28
 914:	df 93       	push	r29
 916:	ec 01       	movw	r28, r24
 918:	46 de       	rcall	.-884    	; 0x5a6 <vTaskSuspendAll>
 91a:	80 91 08 02 	lds	r24, 0x0208	; 0x800208 <pucAlignedHeap.1992>
 91e:	90 91 09 02 	lds	r25, 0x0209	; 0x800209 <pucAlignedHeap.1992+0x1>
 922:	89 2b       	or	r24, r25
 924:	31 f4       	brne	.+12     	; 0x932 <pvPortMalloc+0x24>
 926:	8d e0       	ldi	r24, 0x0D	; 13
 928:	92 e0       	ldi	r25, 0x02	; 2
 92a:	90 93 09 02 	sts	0x0209, r25	; 0x800209 <pucAlignedHeap.1992+0x1>
 92e:	80 93 08 02 	sts	0x0208, r24	; 0x800208 <pucAlignedHeap.1992>
 932:	80 91 0a 02 	lds	r24, 0x020A	; 0x80020a <xNextFreeByte>
 936:	90 91 0b 02 	lds	r25, 0x020B	; 0x80020b <xNextFreeByte+0x1>
 93a:	c8 0f       	add	r28, r24
 93c:	d9 1f       	adc	r29, r25
 93e:	cf 3f       	cpi	r28, 0xFF	; 255
 940:	21 e0       	ldi	r18, 0x01	; 1
 942:	d2 07       	cpc	r29, r18
 944:	a0 f4       	brcc	.+40     	; 0x96e <pvPortMalloc+0x60>
 946:	8c 17       	cp	r24, r28
 948:	9d 07       	cpc	r25, r29
 94a:	88 f4       	brcc	.+34     	; 0x96e <pvPortMalloc+0x60>
 94c:	00 91 08 02 	lds	r16, 0x0208	; 0x800208 <pucAlignedHeap.1992>
 950:	10 91 09 02 	lds	r17, 0x0209	; 0x800209 <pucAlignedHeap.1992+0x1>
 954:	08 0f       	add	r16, r24
 956:	19 1f       	adc	r17, r25
 958:	d0 93 0b 02 	sts	0x020B, r29	; 0x80020b <xNextFreeByte+0x1>
 95c:	c0 93 0a 02 	sts	0x020A, r28	; 0x80020a <xNextFreeByte>
 960:	d1 de       	rcall	.-606    	; 0x704 <xTaskResumeAll>
 962:	c8 01       	movw	r24, r16
 964:	df 91       	pop	r29
 966:	cf 91       	pop	r28
 968:	1f 91       	pop	r17
 96a:	0f 91       	pop	r16
 96c:	08 95       	ret
 96e:	10 e0       	ldi	r17, 0x00	; 0
 970:	00 e0       	ldi	r16, 0x00	; 0
 972:	f6 cf       	rjmp	.-20     	; 0x960 <pvPortMalloc+0x52>

00000974 <vPortFree>:
 974:	08 95       	ret

00000976 <pxPortInitialiseStack>:
 976:	fc 01       	movw	r30, r24
 978:	91 e1       	ldi	r25, 0x11	; 17
 97a:	90 83       	st	Z, r25
 97c:	df 01       	movw	r26, r30
 97e:	11 97       	sbiw	r26, 0x01	; 1
 980:	82 e2       	ldi	r24, 0x22	; 34
 982:	8c 93       	st	X, r24
 984:	11 97       	sbiw	r26, 0x01	; 1
 986:	23 e3       	ldi	r18, 0x33	; 51
 988:	2c 93       	st	X, r18
 98a:	11 97       	sbiw	r26, 0x01	; 1
 98c:	6c 93       	st	X, r22
 98e:	11 97       	sbiw	r26, 0x01	; 1
 990:	7c 93       	st	X, r23
 992:	11 97       	sbiw	r26, 0x01	; 1
 994:	1c 92       	st	X, r1
 996:	11 97       	sbiw	r26, 0x01	; 1
 998:	20 e8       	ldi	r18, 0x80	; 128
 99a:	2c 93       	st	X, r18
 99c:	11 97       	sbiw	r26, 0x01	; 1
 99e:	1c 92       	st	X, r1
 9a0:	11 97       	sbiw	r26, 0x01	; 1
 9a2:	22 e0       	ldi	r18, 0x02	; 2
 9a4:	2c 93       	st	X, r18
 9a6:	11 97       	sbiw	r26, 0x01	; 1
 9a8:	23 e0       	ldi	r18, 0x03	; 3
 9aa:	2c 93       	st	X, r18
 9ac:	11 97       	sbiw	r26, 0x01	; 1
 9ae:	24 e0       	ldi	r18, 0x04	; 4
 9b0:	2c 93       	st	X, r18
 9b2:	11 97       	sbiw	r26, 0x01	; 1
 9b4:	25 e0       	ldi	r18, 0x05	; 5
 9b6:	2c 93       	st	X, r18
 9b8:	11 97       	sbiw	r26, 0x01	; 1
 9ba:	26 e0       	ldi	r18, 0x06	; 6
 9bc:	2c 93       	st	X, r18
 9be:	11 97       	sbiw	r26, 0x01	; 1
 9c0:	27 e0       	ldi	r18, 0x07	; 7
 9c2:	2c 93       	st	X, r18
 9c4:	11 97       	sbiw	r26, 0x01	; 1
 9c6:	28 e0       	ldi	r18, 0x08	; 8
 9c8:	2c 93       	st	X, r18
 9ca:	11 97       	sbiw	r26, 0x01	; 1
 9cc:	29 e0       	ldi	r18, 0x09	; 9
 9ce:	2c 93       	st	X, r18
 9d0:	11 97       	sbiw	r26, 0x01	; 1
 9d2:	20 e1       	ldi	r18, 0x10	; 16
 9d4:	2c 93       	st	X, r18
 9d6:	11 97       	sbiw	r26, 0x01	; 1
 9d8:	9c 93       	st	X, r25
 9da:	11 97       	sbiw	r26, 0x01	; 1
 9dc:	92 e1       	ldi	r25, 0x12	; 18
 9de:	9c 93       	st	X, r25
 9e0:	11 97       	sbiw	r26, 0x01	; 1
 9e2:	93 e1       	ldi	r25, 0x13	; 19
 9e4:	9c 93       	st	X, r25
 9e6:	11 97       	sbiw	r26, 0x01	; 1
 9e8:	94 e1       	ldi	r25, 0x14	; 20
 9ea:	9c 93       	st	X, r25
 9ec:	11 97       	sbiw	r26, 0x01	; 1
 9ee:	95 e1       	ldi	r25, 0x15	; 21
 9f0:	9c 93       	st	X, r25
 9f2:	11 97       	sbiw	r26, 0x01	; 1
 9f4:	96 e1       	ldi	r25, 0x16	; 22
 9f6:	9c 93       	st	X, r25
 9f8:	11 97       	sbiw	r26, 0x01	; 1
 9fa:	97 e1       	ldi	r25, 0x17	; 23
 9fc:	9c 93       	st	X, r25
 9fe:	11 97       	sbiw	r26, 0x01	; 1
 a00:	98 e1       	ldi	r25, 0x18	; 24
 a02:	9c 93       	st	X, r25
 a04:	11 97       	sbiw	r26, 0x01	; 1
 a06:	99 e1       	ldi	r25, 0x19	; 25
 a08:	9c 93       	st	X, r25
 a0a:	11 97       	sbiw	r26, 0x01	; 1
 a0c:	90 e2       	ldi	r25, 0x20	; 32
 a0e:	9c 93       	st	X, r25
 a10:	11 97       	sbiw	r26, 0x01	; 1
 a12:	91 e2       	ldi	r25, 0x21	; 33
 a14:	9c 93       	st	X, r25
 a16:	11 97       	sbiw	r26, 0x01	; 1
 a18:	8c 93       	st	X, r24
 a1a:	11 97       	sbiw	r26, 0x01	; 1
 a1c:	83 e2       	ldi	r24, 0x23	; 35
 a1e:	8c 93       	st	X, r24
 a20:	11 97       	sbiw	r26, 0x01	; 1
 a22:	4c 93       	st	X, r20
 a24:	11 97       	sbiw	r26, 0x01	; 1
 a26:	5c 93       	st	X, r21
 a28:	11 97       	sbiw	r26, 0x01	; 1
 a2a:	86 e2       	ldi	r24, 0x26	; 38
 a2c:	8c 93       	st	X, r24
 a2e:	11 97       	sbiw	r26, 0x01	; 1
 a30:	87 e2       	ldi	r24, 0x27	; 39
 a32:	8c 93       	st	X, r24
 a34:	11 97       	sbiw	r26, 0x01	; 1
 a36:	88 e2       	ldi	r24, 0x28	; 40
 a38:	8c 93       	st	X, r24
 a3a:	11 97       	sbiw	r26, 0x01	; 1
 a3c:	89 e2       	ldi	r24, 0x29	; 41
 a3e:	8c 93       	st	X, r24
 a40:	11 97       	sbiw	r26, 0x01	; 1
 a42:	80 e3       	ldi	r24, 0x30	; 48
 a44:	8c 93       	st	X, r24
 a46:	11 97       	sbiw	r26, 0x01	; 1
 a48:	81 e3       	ldi	r24, 0x31	; 49
 a4a:	8c 93       	st	X, r24
 a4c:	cf 01       	movw	r24, r30
 a4e:	86 97       	sbiw	r24, 0x26	; 38
 a50:	08 95       	ret

00000a52 <xPortStartScheduler>:
 a52:	10 92 89 00 	sts	0x0089, r1	; 0x800089 <__EEPROM_REGION_LENGTH__+0x7f0089>
 a56:	8b e9       	ldi	r24, 0x9B	; 155
 a58:	80 93 88 00 	sts	0x0088, r24	; 0x800088 <__EEPROM_REGION_LENGTH__+0x7f0088>
 a5c:	8b e0       	ldi	r24, 0x0B	; 11
 a5e:	80 93 81 00 	sts	0x0081, r24	; 0x800081 <__EEPROM_REGION_LENGTH__+0x7f0081>
 a62:	ef e6       	ldi	r30, 0x6F	; 111
 a64:	f0 e0       	ldi	r31, 0x00	; 0
 a66:	80 81       	ld	r24, Z
 a68:	82 60       	ori	r24, 0x02	; 2
 a6a:	80 83       	st	Z, r24
 a6c:	a0 91 06 02 	lds	r26, 0x0206	; 0x800206 <pxCurrentTCB>
 a70:	b0 91 07 02 	lds	r27, 0x0207	; 0x800207 <pxCurrentTCB+0x1>
 a74:	cd 91       	ld	r28, X+
 a76:	cd bf       	out	0x3d, r28	; 61
 a78:	dd 91       	ld	r29, X+
 a7a:	de bf       	out	0x3e, r29	; 62
 a7c:	ff 91       	pop	r31
 a7e:	ef 91       	pop	r30
 a80:	df 91       	pop	r29
 a82:	cf 91       	pop	r28
 a84:	bf 91       	pop	r27
 a86:	af 91       	pop	r26
 a88:	9f 91       	pop	r25
 a8a:	8f 91       	pop	r24
 a8c:	7f 91       	pop	r23
 a8e:	6f 91       	pop	r22
 a90:	5f 91       	pop	r21
 a92:	4f 91       	pop	r20
 a94:	3f 91       	pop	r19
 a96:	2f 91       	pop	r18
 a98:	1f 91       	pop	r17
 a9a:	0f 91       	pop	r16
 a9c:	ff 90       	pop	r15
 a9e:	ef 90       	pop	r14
 aa0:	df 90       	pop	r13
 aa2:	cf 90       	pop	r12
 aa4:	bf 90       	pop	r11
 aa6:	af 90       	pop	r10
 aa8:	9f 90       	pop	r9
 aaa:	8f 90       	pop	r8
 aac:	7f 90       	pop	r7
 aae:	6f 90       	pop	r6
 ab0:	5f 90       	pop	r5
 ab2:	4f 90       	pop	r4
 ab4:	3f 90       	pop	r3
 ab6:	2f 90       	pop	r2
 ab8:	1f 90       	pop	r1
 aba:	0f 90       	pop	r0
 abc:	0f be       	out	0x3f, r0	; 63
 abe:	0f 90       	pop	r0
 ac0:	08 95       	ret
 ac2:	81 e0       	ldi	r24, 0x01	; 1
 ac4:	08 95       	ret

00000ac6 <vPortYield>:
 ac6:	0f 92       	push	r0
 ac8:	0f b6       	in	r0, 0x3f	; 63
 aca:	f8 94       	cli
 acc:	0f 92       	push	r0
 ace:	1f 92       	push	r1
 ad0:	11 24       	eor	r1, r1
 ad2:	2f 92       	push	r2
 ad4:	3f 92       	push	r3
 ad6:	4f 92       	push	r4
 ad8:	5f 92       	push	r5
 ada:	6f 92       	push	r6
 adc:	7f 92       	push	r7
 ade:	8f 92       	push	r8
 ae0:	9f 92       	push	r9
 ae2:	af 92       	push	r10
 ae4:	bf 92       	push	r11
 ae6:	cf 92       	push	r12
 ae8:	df 92       	push	r13
 aea:	ef 92       	push	r14
 aec:	ff 92       	push	r15
 aee:	0f 93       	push	r16
 af0:	1f 93       	push	r17
 af2:	2f 93       	push	r18
 af4:	3f 93       	push	r19
 af6:	4f 93       	push	r20
 af8:	5f 93       	push	r21
 afa:	6f 93       	push	r22
 afc:	7f 93       	push	r23
 afe:	8f 93       	push	r24
 b00:	9f 93       	push	r25
 b02:	af 93       	push	r26
 b04:	bf 93       	push	r27
 b06:	cf 93       	push	r28
 b08:	df 93       	push	r29
 b0a:	ef 93       	push	r30
 b0c:	ff 93       	push	r31
 b0e:	a0 91 06 02 	lds	r26, 0x0206	; 0x800206 <pxCurrentTCB>
 b12:	b0 91 07 02 	lds	r27, 0x0207	; 0x800207 <pxCurrentTCB+0x1>
 b16:	0d b6       	in	r0, 0x3d	; 61
 b18:	0d 92       	st	X+, r0
 b1a:	0e b6       	in	r0, 0x3e	; 62
 b1c:	0d 92       	st	X+, r0
 b1e:	5f de       	rcall	.-834    	; 0x7de <vTaskSwitchContext>
 b20:	a0 91 06 02 	lds	r26, 0x0206	; 0x800206 <pxCurrentTCB>
 b24:	b0 91 07 02 	lds	r27, 0x0207	; 0x800207 <pxCurrentTCB+0x1>
 b28:	cd 91       	ld	r28, X+
 b2a:	cd bf       	out	0x3d, r28	; 61
 b2c:	dd 91       	ld	r29, X+
 b2e:	de bf       	out	0x3e, r29	; 62
 b30:	ff 91       	pop	r31
 b32:	ef 91       	pop	r30
 b34:	df 91       	pop	r29
 b36:	cf 91       	pop	r28
 b38:	bf 91       	pop	r27
 b3a:	af 91       	pop	r26
 b3c:	9f 91       	pop	r25
 b3e:	8f 91       	pop	r24
 b40:	7f 91       	pop	r23
 b42:	6f 91       	pop	r22
 b44:	5f 91       	pop	r21
 b46:	4f 91       	pop	r20
 b48:	3f 91       	pop	r19
 b4a:	2f 91       	pop	r18
 b4c:	1f 91       	pop	r17
 b4e:	0f 91       	pop	r16
 b50:	ff 90       	pop	r15
 b52:	ef 90       	pop	r14
 b54:	df 90       	pop	r13
 b56:	cf 90       	pop	r12
 b58:	bf 90       	pop	r11
 b5a:	af 90       	pop	r10
 b5c:	9f 90       	pop	r9
 b5e:	8f 90       	pop	r8
 b60:	7f 90       	pop	r7
 b62:	6f 90       	pop	r6
 b64:	5f 90       	pop	r5
 b66:	4f 90       	pop	r4
 b68:	3f 90       	pop	r3
 b6a:	2f 90       	pop	r2
 b6c:	1f 90       	pop	r1
 b6e:	0f 90       	pop	r0
 b70:	0f be       	out	0x3f, r0	; 63
 b72:	0f 90       	pop	r0
 b74:	08 95       	ret

00000b76 <abort>:
 b76:	81 e0       	ldi	r24, 0x01	; 1
 b78:	90 e0       	ldi	r25, 0x00	; 0
 b7a:	f8 94       	cli
 b7c:	0b c0       	rjmp	.+22     	; 0xb94 <_exit>

00000b7e <exit>:
 b7e:	f8 94       	cli
 b80:	09 c0       	rjmp	.+18     	; 0xb94 <_exit>

00000b82 <memcpy>:
 b82:	fb 01       	movw	r30, r22
 b84:	dc 01       	movw	r26, r24
 b86:	02 c0       	rjmp	.+4      	; 0xb8c <memcpy+0xa>
 b88:	01 90       	ld	r0, Z+
 b8a:	0d 92       	st	X+, r0
 b8c:	41 50       	subi	r20, 0x01	; 1
 b8e:	50 40       	sbci	r21, 0x00	; 0
 b90:	d8 f7       	brcc	.-10     	; 0xb88 <memcpy+0x6>
 b92:	08 95       	ret

00000b94 <_exit>:
 b94:	f8 94       	cli

00000b96 <__stop_program>:
 b96:	ff cf       	rjmp	.-2      	; 0xb96 <__stop_program>
